
STM32F103C8T6_CMSIS.elf:     file format elf32-littlearm

Sections:
Idx Name          Size      VMA       LMA       File off  Algn
  0 .isr_vector   0000010c  08000000  08000000  00010000  2**0
                  CONTENTS, ALLOC, LOAD, READONLY, DATA
  1 .text         00003108  0800010c  0800010c  0001010c  2**2
                  CONTENTS, ALLOC, LOAD, READONLY, CODE
  2 .rodata       0000051c  08003214  08003214  00013214  2**2
                  CONTENTS, ALLOC, LOAD, READONLY, DATA
  3 .ARM.extab    00000000  08003730  08003730  00020084  2**0
                  CONTENTS
  4 .ARM          00000000  08003730  08003730  00020084  2**0
                  CONTENTS
  5 .preinit_array 00000000  08003730  08003730  00020084  2**0
                  CONTENTS, ALLOC, LOAD, DATA
  6 .init_array   00000004  08003730  08003730  00013730  2**2
                  CONTENTS, ALLOC, LOAD, DATA
  7 .fini_array   00000004  08003734  08003734  00013734  2**2
                  CONTENTS, ALLOC, LOAD, DATA
  8 .data         00000084  20000000  08003738  00020000  2**2
                  CONTENTS, ALLOC, LOAD, DATA
  9 .bss          000000d4  20000084  080037bc  00020084  2**2
                  ALLOC
 10 ._user_heap_stack 00000300  20000158  080037bc  00020158  2**0
                  ALLOC
 11 .ARM.attributes 00000029  00000000  00000000  00020084  2**0
                  CONTENTS, READONLY
 12 .debug_info   000053cd  00000000  00000000  000200ad  2**0
                  CONTENTS, READONLY, DEBUGGING, OCTETS
 13 .debug_abbrev 00000f14  00000000  00000000  0002547a  2**0
                  CONTENTS, READONLY, DEBUGGING, OCTETS
 14 .debug_aranges 000003c8  00000000  00000000  00026390  2**3
                  CONTENTS, READONLY, DEBUGGING, OCTETS
 15 .debug_ranges 00000350  00000000  00000000  00026758  2**3
                  CONTENTS, READONLY, DEBUGGING, OCTETS
 16 .debug_macro  00012334  00000000  00000000  00026aa8  2**0
                  CONTENTS, READONLY, DEBUGGING, OCTETS
 17 .debug_line   00003fc5  00000000  00000000  00038ddc  2**0
                  CONTENTS, READONLY, DEBUGGING, OCTETS
 18 .debug_str    0005b958  00000000  00000000  0003cda1  2**0
                  CONTENTS, READONLY, DEBUGGING, OCTETS
 19 .comment      00000053  00000000  00000000  000986f9  2**0
                  CONTENTS, READONLY
 20 .debug_frame  00001a9c  00000000  00000000  0009874c  2**2
                  CONTENTS, READONLY, DEBUGGING, OCTETS

Disassembly of section .text:

0800010c <__do_global_dtors_aux>:
 800010c:	b510      	push	{r4, lr}
 800010e:	4c05      	ldr	r4, [pc, #20]	; (8000124 <__do_global_dtors_aux+0x18>)
 8000110:	7823      	ldrb	r3, [r4, #0]
 8000112:	b933      	cbnz	r3, 8000122 <__do_global_dtors_aux+0x16>
 8000114:	4b04      	ldr	r3, [pc, #16]	; (8000128 <__do_global_dtors_aux+0x1c>)
 8000116:	b113      	cbz	r3, 800011e <__do_global_dtors_aux+0x12>
 8000118:	4804      	ldr	r0, [pc, #16]	; (800012c <__do_global_dtors_aux+0x20>)
 800011a:	f3af 8000 	nop.w
 800011e:	2301      	movs	r3, #1
 8000120:	7023      	strb	r3, [r4, #0]
 8000122:	bd10      	pop	{r4, pc}
 8000124:	20000084 	.word	0x20000084
 8000128:	00000000 	.word	0x00000000
 800012c:	080031fc 	.word	0x080031fc

08000130 <frame_dummy>:
 8000130:	b508      	push	{r3, lr}
 8000132:	4b03      	ldr	r3, [pc, #12]	; (8000140 <frame_dummy+0x10>)
 8000134:	b11b      	cbz	r3, 800013e <frame_dummy+0xe>
 8000136:	4903      	ldr	r1, [pc, #12]	; (8000144 <frame_dummy+0x14>)
 8000138:	4803      	ldr	r0, [pc, #12]	; (8000148 <frame_dummy+0x18>)
 800013a:	f3af 8000 	nop.w
 800013e:	bd08      	pop	{r3, pc}
 8000140:	00000000 	.word	0x00000000
 8000144:	20000088 	.word	0x20000088
 8000148:	080031fc 	.word	0x080031fc

0800014c <__aeabi_frsub>:
 800014c:	f080 4000 	eor.w	r0, r0, #2147483648	; 0x80000000
 8000150:	e002      	b.n	8000158 <__addsf3>
 8000152:	bf00      	nop

08000154 <__aeabi_fsub>:
 8000154:	f081 4100 	eor.w	r1, r1, #2147483648	; 0x80000000

08000158 <__addsf3>:
 8000158:	0042      	lsls	r2, r0, #1
 800015a:	bf1f      	itttt	ne
 800015c:	ea5f 0341 	movsne.w	r3, r1, lsl #1
 8000160:	ea92 0f03 	teqne	r2, r3
 8000164:	ea7f 6c22 	mvnsne.w	ip, r2, asr #24
 8000168:	ea7f 6c23 	mvnsne.w	ip, r3, asr #24
 800016c:	d06a      	beq.n	8000244 <__addsf3+0xec>
 800016e:	ea4f 6212 	mov.w	r2, r2, lsr #24
 8000172:	ebd2 6313 	rsbs	r3, r2, r3, lsr #24
 8000176:	bfc1      	itttt	gt
 8000178:	18d2      	addgt	r2, r2, r3
 800017a:	4041      	eorgt	r1, r0
 800017c:	4048      	eorgt	r0, r1
 800017e:	4041      	eorgt	r1, r0
 8000180:	bfb8      	it	lt
 8000182:	425b      	neglt	r3, r3
 8000184:	2b19      	cmp	r3, #25
 8000186:	bf88      	it	hi
 8000188:	4770      	bxhi	lr
 800018a:	f010 4f00 	tst.w	r0, #2147483648	; 0x80000000
 800018e:	f440 0000 	orr.w	r0, r0, #8388608	; 0x800000
 8000192:	f020 407f 	bic.w	r0, r0, #4278190080	; 0xff000000
 8000196:	bf18      	it	ne
 8000198:	4240      	negne	r0, r0
 800019a:	f011 4f00 	tst.w	r1, #2147483648	; 0x80000000
 800019e:	f441 0100 	orr.w	r1, r1, #8388608	; 0x800000
 80001a2:	f021 417f 	bic.w	r1, r1, #4278190080	; 0xff000000
 80001a6:	bf18      	it	ne
 80001a8:	4249      	negne	r1, r1
 80001aa:	ea92 0f03 	teq	r2, r3
 80001ae:	d03f      	beq.n	8000230 <__addsf3+0xd8>
 80001b0:	f1a2 0201 	sub.w	r2, r2, #1
 80001b4:	fa41 fc03 	asr.w	ip, r1, r3
 80001b8:	eb10 000c 	adds.w	r0, r0, ip
 80001bc:	f1c3 0320 	rsb	r3, r3, #32
 80001c0:	fa01 f103 	lsl.w	r1, r1, r3
 80001c4:	f000 4300 	and.w	r3, r0, #2147483648	; 0x80000000
 80001c8:	d502      	bpl.n	80001d0 <__addsf3+0x78>
 80001ca:	4249      	negs	r1, r1
 80001cc:	eb60 0040 	sbc.w	r0, r0, r0, lsl #1
 80001d0:	f5b0 0f00 	cmp.w	r0, #8388608	; 0x800000
 80001d4:	d313      	bcc.n	80001fe <__addsf3+0xa6>
 80001d6:	f1b0 7f80 	cmp.w	r0, #16777216	; 0x1000000
 80001da:	d306      	bcc.n	80001ea <__addsf3+0x92>
 80001dc:	0840      	lsrs	r0, r0, #1
 80001de:	ea4f 0131 	mov.w	r1, r1, rrx
 80001e2:	f102 0201 	add.w	r2, r2, #1
 80001e6:	2afe      	cmp	r2, #254	; 0xfe
 80001e8:	d251      	bcs.n	800028e <__addsf3+0x136>
 80001ea:	f1b1 4f00 	cmp.w	r1, #2147483648	; 0x80000000
 80001ee:	eb40 50c2 	adc.w	r0, r0, r2, lsl #23
 80001f2:	bf08      	it	eq
 80001f4:	f020 0001 	biceq.w	r0, r0, #1
 80001f8:	ea40 0003 	orr.w	r0, r0, r3
 80001fc:	4770      	bx	lr
 80001fe:	0049      	lsls	r1, r1, #1
 8000200:	eb40 0000 	adc.w	r0, r0, r0
 8000204:	3a01      	subs	r2, #1
 8000206:	bf28      	it	cs
 8000208:	f5b0 0f00 	cmpcs.w	r0, #8388608	; 0x800000
 800020c:	d2ed      	bcs.n	80001ea <__addsf3+0x92>
 800020e:	fab0 fc80 	clz	ip, r0
 8000212:	f1ac 0c08 	sub.w	ip, ip, #8
 8000216:	ebb2 020c 	subs.w	r2, r2, ip
 800021a:	fa00 f00c 	lsl.w	r0, r0, ip
 800021e:	bfaa      	itet	ge
 8000220:	eb00 50c2 	addge.w	r0, r0, r2, lsl #23
 8000224:	4252      	neglt	r2, r2
 8000226:	4318      	orrge	r0, r3
 8000228:	bfbc      	itt	lt
 800022a:	40d0      	lsrlt	r0, r2
 800022c:	4318      	orrlt	r0, r3
 800022e:	4770      	bx	lr
 8000230:	f092 0f00 	teq	r2, #0
 8000234:	f481 0100 	eor.w	r1, r1, #8388608	; 0x800000
 8000238:	bf06      	itte	eq
 800023a:	f480 0000 	eoreq.w	r0, r0, #8388608	; 0x800000
 800023e:	3201      	addeq	r2, #1
 8000240:	3b01      	subne	r3, #1
 8000242:	e7b5      	b.n	80001b0 <__addsf3+0x58>
 8000244:	ea4f 0341 	mov.w	r3, r1, lsl #1
 8000248:	ea7f 6c22 	mvns.w	ip, r2, asr #24
 800024c:	bf18      	it	ne
 800024e:	ea7f 6c23 	mvnsne.w	ip, r3, asr #24
 8000252:	d021      	beq.n	8000298 <__addsf3+0x140>
 8000254:	ea92 0f03 	teq	r2, r3
 8000258:	d004      	beq.n	8000264 <__addsf3+0x10c>
 800025a:	f092 0f00 	teq	r2, #0
 800025e:	bf08      	it	eq
 8000260:	4608      	moveq	r0, r1
 8000262:	4770      	bx	lr
 8000264:	ea90 0f01 	teq	r0, r1
 8000268:	bf1c      	itt	ne
 800026a:	2000      	movne	r0, #0
 800026c:	4770      	bxne	lr
 800026e:	f012 4f7f 	tst.w	r2, #4278190080	; 0xff000000
 8000272:	d104      	bne.n	800027e <__addsf3+0x126>
 8000274:	0040      	lsls	r0, r0, #1
 8000276:	bf28      	it	cs
 8000278:	f040 4000 	orrcs.w	r0, r0, #2147483648	; 0x80000000
 800027c:	4770      	bx	lr
 800027e:	f112 7200 	adds.w	r2, r2, #33554432	; 0x2000000
 8000282:	bf3c      	itt	cc
 8000284:	f500 0000 	addcc.w	r0, r0, #8388608	; 0x800000
 8000288:	4770      	bxcc	lr
 800028a:	f000 4300 	and.w	r3, r0, #2147483648	; 0x80000000
 800028e:	f043 40fe 	orr.w	r0, r3, #2130706432	; 0x7f000000
 8000292:	f440 0000 	orr.w	r0, r0, #8388608	; 0x800000
 8000296:	4770      	bx	lr
 8000298:	ea7f 6222 	mvns.w	r2, r2, asr #24
 800029c:	bf16      	itet	ne
 800029e:	4608      	movne	r0, r1
 80002a0:	ea7f 6323 	mvnseq.w	r3, r3, asr #24
 80002a4:	4601      	movne	r1, r0
 80002a6:	0242      	lsls	r2, r0, #9
 80002a8:	bf06      	itte	eq
 80002aa:	ea5f 2341 	movseq.w	r3, r1, lsl #9
 80002ae:	ea90 0f01 	teqeq	r0, r1
 80002b2:	f440 0080 	orrne.w	r0, r0, #4194304	; 0x400000
 80002b6:	4770      	bx	lr

080002b8 <__aeabi_ui2f>:
 80002b8:	f04f 0300 	mov.w	r3, #0
 80002bc:	e004      	b.n	80002c8 <__aeabi_i2f+0x8>
 80002be:	bf00      	nop

080002c0 <__aeabi_i2f>:
 80002c0:	f010 4300 	ands.w	r3, r0, #2147483648	; 0x80000000
 80002c4:	bf48      	it	mi
 80002c6:	4240      	negmi	r0, r0
 80002c8:	ea5f 0c00 	movs.w	ip, r0
 80002cc:	bf08      	it	eq
 80002ce:	4770      	bxeq	lr
 80002d0:	f043 4396 	orr.w	r3, r3, #1258291200	; 0x4b000000
 80002d4:	4601      	mov	r1, r0
 80002d6:	f04f 0000 	mov.w	r0, #0
 80002da:	e01c      	b.n	8000316 <__aeabi_l2f+0x2a>

080002dc <__aeabi_ul2f>:
 80002dc:	ea50 0201 	orrs.w	r2, r0, r1
 80002e0:	bf08      	it	eq
 80002e2:	4770      	bxeq	lr
 80002e4:	f04f 0300 	mov.w	r3, #0
 80002e8:	e00a      	b.n	8000300 <__aeabi_l2f+0x14>
 80002ea:	bf00      	nop

080002ec <__aeabi_l2f>:
 80002ec:	ea50 0201 	orrs.w	r2, r0, r1
 80002f0:	bf08      	it	eq
 80002f2:	4770      	bxeq	lr
 80002f4:	f011 4300 	ands.w	r3, r1, #2147483648	; 0x80000000
 80002f8:	d502      	bpl.n	8000300 <__aeabi_l2f+0x14>
 80002fa:	4240      	negs	r0, r0
 80002fc:	eb61 0141 	sbc.w	r1, r1, r1, lsl #1
 8000300:	ea5f 0c01 	movs.w	ip, r1
 8000304:	bf02      	ittt	eq
 8000306:	4684      	moveq	ip, r0
 8000308:	4601      	moveq	r1, r0
 800030a:	2000      	moveq	r0, #0
 800030c:	f043 43b6 	orr.w	r3, r3, #1526726656	; 0x5b000000
 8000310:	bf08      	it	eq
 8000312:	f1a3 5380 	subeq.w	r3, r3, #268435456	; 0x10000000
 8000316:	f5a3 0300 	sub.w	r3, r3, #8388608	; 0x800000
 800031a:	fabc f28c 	clz	r2, ip
 800031e:	3a08      	subs	r2, #8
 8000320:	eba3 53c2 	sub.w	r3, r3, r2, lsl #23
 8000324:	db10      	blt.n	8000348 <__aeabi_l2f+0x5c>
 8000326:	fa01 fc02 	lsl.w	ip, r1, r2
 800032a:	4463      	add	r3, ip
 800032c:	fa00 fc02 	lsl.w	ip, r0, r2
 8000330:	f1c2 0220 	rsb	r2, r2, #32
 8000334:	f1bc 4f00 	cmp.w	ip, #2147483648	; 0x80000000
 8000338:	fa20 f202 	lsr.w	r2, r0, r2
 800033c:	eb43 0002 	adc.w	r0, r3, r2
 8000340:	bf08      	it	eq
 8000342:	f020 0001 	biceq.w	r0, r0, #1
 8000346:	4770      	bx	lr
 8000348:	f102 0220 	add.w	r2, r2, #32
 800034c:	fa01 fc02 	lsl.w	ip, r1, r2
 8000350:	f1c2 0220 	rsb	r2, r2, #32
 8000354:	ea50 004c 	orrs.w	r0, r0, ip, lsl #1
 8000358:	fa21 f202 	lsr.w	r2, r1, r2
 800035c:	eb43 0002 	adc.w	r0, r3, r2
 8000360:	bf08      	it	eq
 8000362:	ea20 70dc 	biceq.w	r0, r0, ip, lsr #31
 8000366:	4770      	bx	lr

08000368 <__aeabi_fmul>:
 8000368:	f04f 0cff 	mov.w	ip, #255	; 0xff
 800036c:	ea1c 52d0 	ands.w	r2, ip, r0, lsr #23
 8000370:	bf1e      	ittt	ne
 8000372:	ea1c 53d1 	andsne.w	r3, ip, r1, lsr #23
 8000376:	ea92 0f0c 	teqne	r2, ip
 800037a:	ea93 0f0c 	teqne	r3, ip
 800037e:	d06f      	beq.n	8000460 <__aeabi_fmul+0xf8>
 8000380:	441a      	add	r2, r3
 8000382:	ea80 0c01 	eor.w	ip, r0, r1
 8000386:	0240      	lsls	r0, r0, #9
 8000388:	bf18      	it	ne
 800038a:	ea5f 2141 	movsne.w	r1, r1, lsl #9
 800038e:	d01e      	beq.n	80003ce <__aeabi_fmul+0x66>
 8000390:	f04f 6300 	mov.w	r3, #134217728	; 0x8000000
 8000394:	ea43 1050 	orr.w	r0, r3, r0, lsr #5
 8000398:	ea43 1151 	orr.w	r1, r3, r1, lsr #5
 800039c:	fba0 3101 	umull	r3, r1, r0, r1
 80003a0:	f00c 4000 	and.w	r0, ip, #2147483648	; 0x80000000
 80003a4:	f5b1 0f00 	cmp.w	r1, #8388608	; 0x800000
 80003a8:	bf3e      	ittt	cc
 80003aa:	0049      	lslcc	r1, r1, #1
 80003ac:	ea41 71d3 	orrcc.w	r1, r1, r3, lsr #31
 80003b0:	005b      	lslcc	r3, r3, #1
 80003b2:	ea40 0001 	orr.w	r0, r0, r1
 80003b6:	f162 027f 	sbc.w	r2, r2, #127	; 0x7f
 80003ba:	2afd      	cmp	r2, #253	; 0xfd
 80003bc:	d81d      	bhi.n	80003fa <__aeabi_fmul+0x92>
 80003be:	f1b3 4f00 	cmp.w	r3, #2147483648	; 0x80000000
 80003c2:	eb40 50c2 	adc.w	r0, r0, r2, lsl #23
 80003c6:	bf08      	it	eq
 80003c8:	f020 0001 	biceq.w	r0, r0, #1
 80003cc:	4770      	bx	lr
 80003ce:	f090 0f00 	teq	r0, #0
 80003d2:	f00c 4c00 	and.w	ip, ip, #2147483648	; 0x80000000
 80003d6:	bf08      	it	eq
 80003d8:	0249      	lsleq	r1, r1, #9
 80003da:	ea4c 2050 	orr.w	r0, ip, r0, lsr #9
 80003de:	ea40 2051 	orr.w	r0, r0, r1, lsr #9
 80003e2:	3a7f      	subs	r2, #127	; 0x7f
 80003e4:	bfc2      	ittt	gt
 80003e6:	f1d2 03ff 	rsbsgt	r3, r2, #255	; 0xff
 80003ea:	ea40 50c2 	orrgt.w	r0, r0, r2, lsl #23
 80003ee:	4770      	bxgt	lr
 80003f0:	f440 0000 	orr.w	r0, r0, #8388608	; 0x800000
 80003f4:	f04f 0300 	mov.w	r3, #0
 80003f8:	3a01      	subs	r2, #1
 80003fa:	dc5d      	bgt.n	80004b8 <__aeabi_fmul+0x150>
 80003fc:	f112 0f19 	cmn.w	r2, #25
 8000400:	bfdc      	itt	le
 8000402:	f000 4000 	andle.w	r0, r0, #2147483648	; 0x80000000
 8000406:	4770      	bxle	lr
 8000408:	f1c2 0200 	rsb	r2, r2, #0
 800040c:	0041      	lsls	r1, r0, #1
 800040e:	fa21 f102 	lsr.w	r1, r1, r2
 8000412:	f1c2 0220 	rsb	r2, r2, #32
 8000416:	fa00 fc02 	lsl.w	ip, r0, r2
 800041a:	ea5f 0031 	movs.w	r0, r1, rrx
 800041e:	f140 0000 	adc.w	r0, r0, #0
 8000422:	ea53 034c 	orrs.w	r3, r3, ip, lsl #1
 8000426:	bf08      	it	eq
 8000428:	ea20 70dc 	biceq.w	r0, r0, ip, lsr #31
 800042c:	4770      	bx	lr
 800042e:	f092 0f00 	teq	r2, #0
 8000432:	f000 4c00 	and.w	ip, r0, #2147483648	; 0x80000000
 8000436:	bf02      	ittt	eq
 8000438:	0040      	lsleq	r0, r0, #1
 800043a:	f410 0f00 	tsteq.w	r0, #8388608	; 0x800000
 800043e:	3a01      	subeq	r2, #1
 8000440:	d0f9      	beq.n	8000436 <__aeabi_fmul+0xce>
 8000442:	ea40 000c 	orr.w	r0, r0, ip
 8000446:	f093 0f00 	teq	r3, #0
 800044a:	f001 4c00 	and.w	ip, r1, #2147483648	; 0x80000000
 800044e:	bf02      	ittt	eq
 8000450:	0049      	lsleq	r1, r1, #1
 8000452:	f411 0f00 	tsteq.w	r1, #8388608	; 0x800000
 8000456:	3b01      	subeq	r3, #1
 8000458:	d0f9      	beq.n	800044e <__aeabi_fmul+0xe6>
 800045a:	ea41 010c 	orr.w	r1, r1, ip
 800045e:	e78f      	b.n	8000380 <__aeabi_fmul+0x18>
 8000460:	ea0c 53d1 	and.w	r3, ip, r1, lsr #23
 8000464:	ea92 0f0c 	teq	r2, ip
 8000468:	bf18      	it	ne
 800046a:	ea93 0f0c 	teqne	r3, ip
 800046e:	d00a      	beq.n	8000486 <__aeabi_fmul+0x11e>
 8000470:	f030 4c00 	bics.w	ip, r0, #2147483648	; 0x80000000
 8000474:	bf18      	it	ne
 8000476:	f031 4c00 	bicsne.w	ip, r1, #2147483648	; 0x80000000
 800047a:	d1d8      	bne.n	800042e <__aeabi_fmul+0xc6>
 800047c:	ea80 0001 	eor.w	r0, r0, r1
 8000480:	f000 4000 	and.w	r0, r0, #2147483648	; 0x80000000
 8000484:	4770      	bx	lr
 8000486:	f090 0f00 	teq	r0, #0
 800048a:	bf17      	itett	ne
 800048c:	f090 4f00 	teqne	r0, #2147483648	; 0x80000000
 8000490:	4608      	moveq	r0, r1
 8000492:	f091 0f00 	teqne	r1, #0
 8000496:	f091 4f00 	teqne	r1, #2147483648	; 0x80000000
 800049a:	d014      	beq.n	80004c6 <__aeabi_fmul+0x15e>
 800049c:	ea92 0f0c 	teq	r2, ip
 80004a0:	d101      	bne.n	80004a6 <__aeabi_fmul+0x13e>
 80004a2:	0242      	lsls	r2, r0, #9
 80004a4:	d10f      	bne.n	80004c6 <__aeabi_fmul+0x15e>
 80004a6:	ea93 0f0c 	teq	r3, ip
 80004aa:	d103      	bne.n	80004b4 <__aeabi_fmul+0x14c>
 80004ac:	024b      	lsls	r3, r1, #9
 80004ae:	bf18      	it	ne
 80004b0:	4608      	movne	r0, r1
 80004b2:	d108      	bne.n	80004c6 <__aeabi_fmul+0x15e>
 80004b4:	ea80 0001 	eor.w	r0, r0, r1
 80004b8:	f000 4000 	and.w	r0, r0, #2147483648	; 0x80000000
 80004bc:	f040 40fe 	orr.w	r0, r0, #2130706432	; 0x7f000000
 80004c0:	f440 0000 	orr.w	r0, r0, #8388608	; 0x800000
 80004c4:	4770      	bx	lr
 80004c6:	f040 40fe 	orr.w	r0, r0, #2130706432	; 0x7f000000
 80004ca:	f440 0040 	orr.w	r0, r0, #12582912	; 0xc00000
 80004ce:	4770      	bx	lr

080004d0 <__aeabi_fdiv>:
 80004d0:	f04f 0cff 	mov.w	ip, #255	; 0xff
 80004d4:	ea1c 52d0 	ands.w	r2, ip, r0, lsr #23
 80004d8:	bf1e      	ittt	ne
 80004da:	ea1c 53d1 	andsne.w	r3, ip, r1, lsr #23
 80004de:	ea92 0f0c 	teqne	r2, ip
 80004e2:	ea93 0f0c 	teqne	r3, ip
 80004e6:	d069      	beq.n	80005bc <__aeabi_fdiv+0xec>
 80004e8:	eba2 0203 	sub.w	r2, r2, r3
 80004ec:	ea80 0c01 	eor.w	ip, r0, r1
 80004f0:	0249      	lsls	r1, r1, #9
 80004f2:	ea4f 2040 	mov.w	r0, r0, lsl #9
 80004f6:	d037      	beq.n	8000568 <__aeabi_fdiv+0x98>
 80004f8:	f04f 5380 	mov.w	r3, #268435456	; 0x10000000
 80004fc:	ea43 1111 	orr.w	r1, r3, r1, lsr #4
 8000500:	ea43 1310 	orr.w	r3, r3, r0, lsr #4
 8000504:	f00c 4000 	and.w	r0, ip, #2147483648	; 0x80000000
 8000508:	428b      	cmp	r3, r1
 800050a:	bf38      	it	cc
 800050c:	005b      	lslcc	r3, r3, #1
 800050e:	f142 027d 	adc.w	r2, r2, #125	; 0x7d
 8000512:	f44f 0c00 	mov.w	ip, #8388608	; 0x800000
 8000516:	428b      	cmp	r3, r1
 8000518:	bf24      	itt	cs
 800051a:	1a5b      	subcs	r3, r3, r1
 800051c:	ea40 000c 	orrcs.w	r0, r0, ip
 8000520:	ebb3 0f51 	cmp.w	r3, r1, lsr #1
 8000524:	bf24      	itt	cs
 8000526:	eba3 0351 	subcs.w	r3, r3, r1, lsr #1
 800052a:	ea40 005c 	orrcs.w	r0, r0, ip, lsr #1
 800052e:	ebb3 0f91 	cmp.w	r3, r1, lsr #2
 8000532:	bf24      	itt	cs
 8000534:	eba3 0391 	subcs.w	r3, r3, r1, lsr #2
 8000538:	ea40 009c 	orrcs.w	r0, r0, ip, lsr #2
 800053c:	ebb3 0fd1 	cmp.w	r3, r1, lsr #3
 8000540:	bf24      	itt	cs
 8000542:	eba3 03d1 	subcs.w	r3, r3, r1, lsr #3
 8000546:	ea40 00dc 	orrcs.w	r0, r0, ip, lsr #3
 800054a:	011b      	lsls	r3, r3, #4
 800054c:	bf18      	it	ne
 800054e:	ea5f 1c1c 	movsne.w	ip, ip, lsr #4
 8000552:	d1e0      	bne.n	8000516 <__aeabi_fdiv+0x46>
 8000554:	2afd      	cmp	r2, #253	; 0xfd
 8000556:	f63f af50 	bhi.w	80003fa <__aeabi_fmul+0x92>
 800055a:	428b      	cmp	r3, r1
 800055c:	eb40 50c2 	adc.w	r0, r0, r2, lsl #23
 8000560:	bf08      	it	eq
 8000562:	f020 0001 	biceq.w	r0, r0, #1
 8000566:	4770      	bx	lr
 8000568:	f00c 4c00 	and.w	ip, ip, #2147483648	; 0x80000000
 800056c:	ea4c 2050 	orr.w	r0, ip, r0, lsr #9
 8000570:	327f      	adds	r2, #127	; 0x7f
 8000572:	bfc2      	ittt	gt
 8000574:	f1d2 03ff 	rsbsgt	r3, r2, #255	; 0xff
 8000578:	ea40 50c2 	orrgt.w	r0, r0, r2, lsl #23
 800057c:	4770      	bxgt	lr
 800057e:	f440 0000 	orr.w	r0, r0, #8388608	; 0x800000
 8000582:	f04f 0300 	mov.w	r3, #0
 8000586:	3a01      	subs	r2, #1
 8000588:	e737      	b.n	80003fa <__aeabi_fmul+0x92>
 800058a:	f092 0f00 	teq	r2, #0
 800058e:	f000 4c00 	and.w	ip, r0, #2147483648	; 0x80000000
 8000592:	bf02      	ittt	eq
 8000594:	0040      	lsleq	r0, r0, #1
 8000596:	f410 0f00 	tsteq.w	r0, #8388608	; 0x800000
 800059a:	3a01      	subeq	r2, #1
 800059c:	d0f9      	beq.n	8000592 <__aeabi_fdiv+0xc2>
 800059e:	ea40 000c 	orr.w	r0, r0, ip
 80005a2:	f093 0f00 	teq	r3, #0
 80005a6:	f001 4c00 	and.w	ip, r1, #2147483648	; 0x80000000
 80005aa:	bf02      	ittt	eq
 80005ac:	0049      	lsleq	r1, r1, #1
 80005ae:	f411 0f00 	tsteq.w	r1, #8388608	; 0x800000
 80005b2:	3b01      	subeq	r3, #1
 80005b4:	d0f9      	beq.n	80005aa <__aeabi_fdiv+0xda>
 80005b6:	ea41 010c 	orr.w	r1, r1, ip
 80005ba:	e795      	b.n	80004e8 <__aeabi_fdiv+0x18>
 80005bc:	ea0c 53d1 	and.w	r3, ip, r1, lsr #23
 80005c0:	ea92 0f0c 	teq	r2, ip
 80005c4:	d108      	bne.n	80005d8 <__aeabi_fdiv+0x108>
 80005c6:	0242      	lsls	r2, r0, #9
 80005c8:	f47f af7d 	bne.w	80004c6 <__aeabi_fmul+0x15e>
 80005cc:	ea93 0f0c 	teq	r3, ip
 80005d0:	f47f af70 	bne.w	80004b4 <__aeabi_fmul+0x14c>
 80005d4:	4608      	mov	r0, r1
 80005d6:	e776      	b.n	80004c6 <__aeabi_fmul+0x15e>
 80005d8:	ea93 0f0c 	teq	r3, ip
 80005dc:	d104      	bne.n	80005e8 <__aeabi_fdiv+0x118>
 80005de:	024b      	lsls	r3, r1, #9
 80005e0:	f43f af4c 	beq.w	800047c <__aeabi_fmul+0x114>
 80005e4:	4608      	mov	r0, r1
 80005e6:	e76e      	b.n	80004c6 <__aeabi_fmul+0x15e>
 80005e8:	f030 4c00 	bics.w	ip, r0, #2147483648	; 0x80000000
 80005ec:	bf18      	it	ne
 80005ee:	f031 4c00 	bicsne.w	ip, r1, #2147483648	; 0x80000000
 80005f2:	d1ca      	bne.n	800058a <__aeabi_fdiv+0xba>
 80005f4:	f030 4200 	bics.w	r2, r0, #2147483648	; 0x80000000
 80005f8:	f47f af5c 	bne.w	80004b4 <__aeabi_fmul+0x14c>
 80005fc:	f031 4300 	bics.w	r3, r1, #2147483648	; 0x80000000
 8000600:	f47f af3c 	bne.w	800047c <__aeabi_fmul+0x114>
 8000604:	e75f      	b.n	80004c6 <__aeabi_fmul+0x15e>
 8000606:	bf00      	nop

08000608 <__gesf2>:
 8000608:	f04f 3cff 	mov.w	ip, #4294967295
 800060c:	e006      	b.n	800061c <__cmpsf2+0x4>
 800060e:	bf00      	nop

08000610 <__lesf2>:
 8000610:	f04f 0c01 	mov.w	ip, #1
 8000614:	e002      	b.n	800061c <__cmpsf2+0x4>
 8000616:	bf00      	nop

08000618 <__cmpsf2>:
 8000618:	f04f 0c01 	mov.w	ip, #1
 800061c:	f84d cd04 	str.w	ip, [sp, #-4]!
 8000620:	ea4f 0240 	mov.w	r2, r0, lsl #1
 8000624:	ea4f 0341 	mov.w	r3, r1, lsl #1
 8000628:	ea7f 6c22 	mvns.w	ip, r2, asr #24
 800062c:	bf18      	it	ne
 800062e:	ea7f 6c23 	mvnsne.w	ip, r3, asr #24
 8000632:	d011      	beq.n	8000658 <__cmpsf2+0x40>
 8000634:	b001      	add	sp, #4
 8000636:	ea52 0c53 	orrs.w	ip, r2, r3, lsr #1
 800063a:	bf18      	it	ne
 800063c:	ea90 0f01 	teqne	r0, r1
 8000640:	bf58      	it	pl
 8000642:	ebb2 0003 	subspl.w	r0, r2, r3
 8000646:	bf88      	it	hi
 8000648:	17c8      	asrhi	r0, r1, #31
 800064a:	bf38      	it	cc
 800064c:	ea6f 70e1 	mvncc.w	r0, r1, asr #31
 8000650:	bf18      	it	ne
 8000652:	f040 0001 	orrne.w	r0, r0, #1
 8000656:	4770      	bx	lr
 8000658:	ea7f 6c22 	mvns.w	ip, r2, asr #24
 800065c:	d102      	bne.n	8000664 <__cmpsf2+0x4c>
 800065e:	ea5f 2c40 	movs.w	ip, r0, lsl #9
 8000662:	d105      	bne.n	8000670 <__cmpsf2+0x58>
 8000664:	ea7f 6c23 	mvns.w	ip, r3, asr #24
 8000668:	d1e4      	bne.n	8000634 <__cmpsf2+0x1c>
 800066a:	ea5f 2c41 	movs.w	ip, r1, lsl #9
 800066e:	d0e1      	beq.n	8000634 <__cmpsf2+0x1c>
 8000670:	f85d 0b04 	ldr.w	r0, [sp], #4
 8000674:	4770      	bx	lr
 8000676:	bf00      	nop

08000678 <__aeabi_cfrcmple>:
 8000678:	4684      	mov	ip, r0
 800067a:	4608      	mov	r0, r1
 800067c:	4661      	mov	r1, ip
 800067e:	e7ff      	b.n	8000680 <__aeabi_cfcmpeq>

08000680 <__aeabi_cfcmpeq>:
 8000680:	b50f      	push	{r0, r1, r2, r3, lr}
 8000682:	f7ff ffc9 	bl	8000618 <__cmpsf2>
 8000686:	2800      	cmp	r0, #0
 8000688:	bf48      	it	mi
 800068a:	f110 0f00 	cmnmi.w	r0, #0
 800068e:	bd0f      	pop	{r0, r1, r2, r3, pc}

08000690 <__aeabi_fcmpeq>:
 8000690:	f84d ed08 	str.w	lr, [sp, #-8]!
 8000694:	f7ff fff4 	bl	8000680 <__aeabi_cfcmpeq>
 8000698:	bf0c      	ite	eq
 800069a:	2001      	moveq	r0, #1
 800069c:	2000      	movne	r0, #0
 800069e:	f85d fb08 	ldr.w	pc, [sp], #8
 80006a2:	bf00      	nop

080006a4 <__aeabi_fcmplt>:
 80006a4:	f84d ed08 	str.w	lr, [sp, #-8]!
 80006a8:	f7ff ffea 	bl	8000680 <__aeabi_cfcmpeq>
 80006ac:	bf34      	ite	cc
 80006ae:	2001      	movcc	r0, #1
 80006b0:	2000      	movcs	r0, #0
 80006b2:	f85d fb08 	ldr.w	pc, [sp], #8
 80006b6:	bf00      	nop

080006b8 <__aeabi_fcmple>:
 80006b8:	f84d ed08 	str.w	lr, [sp, #-8]!
 80006bc:	f7ff ffe0 	bl	8000680 <__aeabi_cfcmpeq>
 80006c0:	bf94      	ite	ls
 80006c2:	2001      	movls	r0, #1
 80006c4:	2000      	movhi	r0, #0
 80006c6:	f85d fb08 	ldr.w	pc, [sp], #8
 80006ca:	bf00      	nop

080006cc <__aeabi_fcmpge>:
 80006cc:	f84d ed08 	str.w	lr, [sp, #-8]!
 80006d0:	f7ff ffd2 	bl	8000678 <__aeabi_cfrcmple>
 80006d4:	bf94      	ite	ls
 80006d6:	2001      	movls	r0, #1
 80006d8:	2000      	movhi	r0, #0
 80006da:	f85d fb08 	ldr.w	pc, [sp], #8
 80006de:	bf00      	nop

080006e0 <__aeabi_fcmpgt>:
 80006e0:	f84d ed08 	str.w	lr, [sp, #-8]!
 80006e4:	f7ff ffc8 	bl	8000678 <__aeabi_cfrcmple>
 80006e8:	bf34      	ite	cc
 80006ea:	2001      	movcc	r0, #1
 80006ec:	2000      	movcs	r0, #0
 80006ee:	f85d fb08 	ldr.w	pc, [sp], #8
 80006f2:	bf00      	nop

080006f4 <__aeabi_f2iz>:
 80006f4:	ea4f 0240 	mov.w	r2, r0, lsl #1
 80006f8:	f1b2 4ffe 	cmp.w	r2, #2130706432	; 0x7f000000
 80006fc:	d30f      	bcc.n	800071e <__aeabi_f2iz+0x2a>
 80006fe:	f04f 039e 	mov.w	r3, #158	; 0x9e
 8000702:	ebb3 6212 	subs.w	r2, r3, r2, lsr #24
 8000706:	d90d      	bls.n	8000724 <__aeabi_f2iz+0x30>
 8000708:	ea4f 2300 	mov.w	r3, r0, lsl #8
 800070c:	f043 4300 	orr.w	r3, r3, #2147483648	; 0x80000000
 8000710:	f010 4f00 	tst.w	r0, #2147483648	; 0x80000000
 8000714:	fa23 f002 	lsr.w	r0, r3, r2
 8000718:	bf18      	it	ne
 800071a:	4240      	negne	r0, r0
 800071c:	4770      	bx	lr
 800071e:	f04f 0000 	mov.w	r0, #0
 8000722:	4770      	bx	lr
 8000724:	f112 0f61 	cmn.w	r2, #97	; 0x61
 8000728:	d101      	bne.n	800072e <__aeabi_f2iz+0x3a>
 800072a:	0242      	lsls	r2, r0, #9
 800072c:	d105      	bne.n	800073a <__aeabi_f2iz+0x46>
 800072e:	f010 4000 	ands.w	r0, r0, #2147483648	; 0x80000000
 8000732:	bf08      	it	eq
 8000734:	f06f 4000 	mvneq.w	r0, #2147483648	; 0x80000000
 8000738:	4770      	bx	lr
 800073a:	f04f 0000 	mov.w	r0, #0
 800073e:	4770      	bx	lr

08000740 <USART1_IRQHandler>:
float Channel_5 = 0;
float Channel_6 = 0;
float Channel_7 = 0;
float Channel_8 = 0;

void USART1_IRQHandler(void) {
 8000740:	b480      	push	{r7}
 8000742:	af00      	add	r7, sp, #0
	if (READ_BIT(USART1->SR, USART_SR_RXNE)) {
 8000744:	4b15      	ldr	r3, [pc, #84]	; (800079c <USART1_IRQHandler+0x5c>)
 8000746:	681b      	ldr	r3, [r3, #0]
 8000748:	f003 0320 	and.w	r3, r3, #32
 800074c:	2b00      	cmp	r3, #0
 800074e:	d00e      	beq.n	800076e <USART1_IRQHandler+0x2e>
		husart1.rx_buffer[husart1.rx_counter] = USART1->DR;
 8000750:	4b12      	ldr	r3, [pc, #72]	; (800079c <USART1_IRQHandler+0x5c>)
 8000752:	685a      	ldr	r2, [r3, #4]
 8000754:	4b12      	ldr	r3, [pc, #72]	; (80007a0 <USART1_IRQHandler+0x60>)
 8000756:	8d1b      	ldrh	r3, [r3, #40]	; 0x28
 8000758:	4619      	mov	r1, r3
 800075a:	b2d2      	uxtb	r2, r2
 800075c:	4b10      	ldr	r3, [pc, #64]	; (80007a0 <USART1_IRQHandler+0x60>)
 800075e:	440b      	add	r3, r1
 8000760:	751a      	strb	r2, [r3, #20]
		husart1.rx_counter++;
 8000762:	4b0f      	ldr	r3, [pc, #60]	; (80007a0 <USART1_IRQHandler+0x60>)
 8000764:	8d1b      	ldrh	r3, [r3, #40]	; 0x28
 8000766:	3301      	adds	r3, #1
 8000768:	b29a      	uxth	r2, r3
 800076a:	4b0d      	ldr	r3, [pc, #52]	; (80007a0 <USART1_IRQHandler+0x60>)
 800076c:	851a      	strh	r2, [r3, #40]	; 0x28
	}
	if (READ_BIT(USART1->SR, USART_SR_IDLE)) {
 800076e:	4b0b      	ldr	r3, [pc, #44]	; (800079c <USART1_IRQHandler+0x5c>)
 8000770:	681b      	ldr	r3, [r3, #0]
 8000772:	f003 0310 	and.w	r3, r3, #16
 8000776:	2b00      	cmp	r3, #0
 8000778:	d00b      	beq.n	8000792 <USART1_IRQHandler+0x52>
		USART1->DR;
 800077a:	4b08      	ldr	r3, [pc, #32]	; (800079c <USART1_IRQHandler+0x5c>)
 800077c:	685b      	ldr	r3, [r3, #4]
		husart1.rx_len = husart1.rx_counter;
 800077e:	4b08      	ldr	r3, [pc, #32]	; (80007a0 <USART1_IRQHandler+0x60>)
 8000780:	8d1a      	ldrh	r2, [r3, #40]	; 0x28
 8000782:	4b07      	ldr	r3, [pc, #28]	; (80007a0 <USART1_IRQHandler+0x60>)
 8000784:	855a      	strh	r2, [r3, #42]	; 0x2a
		husart1.rx_counter = 0;
 8000786:	4b06      	ldr	r3, [pc, #24]	; (80007a0 <USART1_IRQHandler+0x60>)
 8000788:	2200      	movs	r2, #0
 800078a:	851a      	strh	r2, [r3, #40]	; 0x28
		ModbusRTU_Data_recieved = true;
 800078c:	4b05      	ldr	r3, [pc, #20]	; (80007a4 <USART1_IRQHandler+0x64>)
 800078e:	2201      	movs	r2, #1
 8000790:	701a      	strb	r2, [r3, #0]

	}
}
 8000792:	bf00      	nop
 8000794:	46bd      	mov	sp, r7
 8000796:	bc80      	pop	{r7}
 8000798:	4770      	bx	lr
 800079a:	bf00      	nop
 800079c:	40013800 	.word	0x40013800
 80007a0:	2000011c 	.word	0x2000011c
 80007a4:	200000e4 	.word	0x200000e4

080007a8 <main>:

int main(void) {
 80007a8:	b580      	push	{r7, lr}
 80007aa:	af00      	add	r7, sp, #0
	CMSIS_Debug_init();
 80007ac:	f000 f9c4 	bl	8000b38 <CMSIS_Debug_init>
	CMSIS_RCC_SystemClock_72MHz();
 80007b0:	f000 f9f0 	bl	8000b94 <CMSIS_RCC_SystemClock_72MHz>
	CMSIS_SysTick_Timer_init();
 80007b4:	f000 fa84 	bl	8000cc0 <CMSIS_SysTick_Timer_init>
	CMSIS_USART1_Init();
 80007b8:	f000 fb4a 	bl	8000e50 <CMSIS_USART1_Init>

	simulation_signal_init();
 80007bc:	f000 f98a 	bl	8000ad4 <simulation_signal_init>

	while (1) {

		//Если данные пришли
		if (ModbusRTU_Data_recieved) {
 80007c0:	4b12      	ldr	r3, [pc, #72]	; (800080c <main+0x64>)
 80007c2:	781b      	ldrb	r3, [r3, #0]
 80007c4:	2b00      	cmp	r3, #0
 80007c6:	d00a      	beq.n	80007de <main+0x36>
			ModbusRTU_slave_Run(husart1.rx_buffer, husart1.rx_len, husart1.tx_buffer); //Обработаем запрос и отдадим ответ
 80007c8:	4b11      	ldr	r3, [pc, #68]	; (8000810 <main+0x68>)
 80007ca:	8d5b      	ldrh	r3, [r3, #42]	; 0x2a
 80007cc:	b2db      	uxtb	r3, r3
 80007ce:	4a10      	ldr	r2, [pc, #64]	; (8000810 <main+0x68>)
 80007d0:	4619      	mov	r1, r3
 80007d2:	4810      	ldr	r0, [pc, #64]	; (8000814 <main+0x6c>)
 80007d4:	f000 fdd0 	bl	8001378 <ModbusRTU_slave_Run>
			ModbusRTU_Data_recieved = false; //Ждем следующий запрос
 80007d8:	4b0c      	ldr	r3, [pc, #48]	; (800080c <main+0x64>)
 80007da:	2200      	movs	r2, #0
 80007dc:	701a      	strb	r2, [r3, #0]
		}

		if (simulation_interval == 0) {
 80007de:	4b0e      	ldr	r3, [pc, #56]	; (8000818 <main+0x70>)
 80007e0:	681b      	ldr	r3, [r3, #0]
 80007e2:	2b00      	cmp	r3, #0
 80007e4:	d1ec      	bne.n	80007c0 <main+0x18>
			Simulation_signal();
 80007e6:	f000 f827 	bl	8000838 <Simulation_signal>
			ModbusRTU_fast_Embedded_send_data(Channel_1, MODBUSRTU_SLAVE_CHANNEL_1_H_REG);
 80007ea:	4b0c      	ldr	r3, [pc, #48]	; (800081c <main+0x74>)
 80007ec:	681b      	ldr	r3, [r3, #0]
 80007ee:	2100      	movs	r1, #0
 80007f0:	4618      	mov	r0, r3
 80007f2:	f000 fe01 	bl	80013f8 <ModbusRTU_fast_Embedded_send_data>
			ModbusRTU_fast_Embedded_send_data(Channel_2, MODBUSRTU_SLAVE_CHANNEL_2_H_REG);
 80007f6:	4b0a      	ldr	r3, [pc, #40]	; (8000820 <main+0x78>)
 80007f8:	681b      	ldr	r3, [r3, #0]
 80007fa:	2102      	movs	r1, #2
 80007fc:	4618      	mov	r0, r3
 80007fe:	f000 fdfb 	bl	80013f8 <ModbusRTU_fast_Embedded_send_data>
			simulation_interval = 50;
 8000802:	4b05      	ldr	r3, [pc, #20]	; (8000818 <main+0x70>)
 8000804:	2232      	movs	r2, #50	; 0x32
 8000806:	601a      	str	r2, [r3, #0]
		if (ModbusRTU_Data_recieved) {
 8000808:	e7da      	b.n	80007c0 <main+0x18>
 800080a:	bf00      	nop
 800080c:	200000e4 	.word	0x200000e4
 8000810:	2000011c 	.word	0x2000011c
 8000814:	20000130 	.word	0x20000130
 8000818:	20000000 	.word	0x20000000
 800081c:	200000a0 	.word	0x200000a0
 8000820:	200000a4 	.word	0x200000a4

08000824 <init_random>:
float minCh2 = 5.0f;
float maxCh2 = 15.0f;
/*===============Симуляция какого-то полезного сигнала, чтоб нарисовать график===============*/

// Инициализация генератора (вызвать один раз при старте)
void init_random(void) {
 8000824:	b580      	push	{r7, lr}
 8000826:	af00      	add	r7, sp, #0
    // Используем таймер как seed для лучшей случайности
    srand((uint32_t)&phaseCh1);
 8000828:	4b02      	ldr	r3, [pc, #8]	; (8000834 <init_random+0x10>)
 800082a:	4618      	mov	r0, r3
 800082c:	f000 feda 	bl	80015e4 <srand>
}
 8000830:	bf00      	nop
 8000832:	bd80      	pop	{r7, pc}
 8000834:	200000a8 	.word	0x200000a8

08000838 <Simulation_signal>:
// Возвращает float в диапазоне [min, max)
float random_float_range(float min, float max) {
    return min + random_float() * (max - min);
}

void Simulation_signal(void) {
 8000838:	b590      	push	{r4, r7, lr}
 800083a:	b083      	sub	sp, #12
 800083c:	af00      	add	r7, sp, #0
    // Обновляем Channel_1 - плавное синусоидальное изменение
    phaseCh1 += speedCh1;
 800083e:	4b94      	ldr	r3, [pc, #592]	; (8000a90 <Simulation_signal+0x258>)
 8000840:	681b      	ldr	r3, [r3, #0]
 8000842:	4a94      	ldr	r2, [pc, #592]	; (8000a94 <Simulation_signal+0x25c>)
 8000844:	4611      	mov	r1, r2
 8000846:	4618      	mov	r0, r3
 8000848:	f7ff fc86 	bl	8000158 <__addsf3>
 800084c:	4603      	mov	r3, r0
 800084e:	461a      	mov	r2, r3
 8000850:	4b8f      	ldr	r3, [pc, #572]	; (8000a90 <Simulation_signal+0x258>)
 8000852:	601a      	str	r2, [r3, #0]
    if (phaseCh1 > 6.28318f)
 8000854:	4b8e      	ldr	r3, [pc, #568]	; (8000a90 <Simulation_signal+0x258>)
 8000856:	681b      	ldr	r3, [r3, #0]
 8000858:	498f      	ldr	r1, [pc, #572]	; (8000a98 <Simulation_signal+0x260>)
 800085a:	4618      	mov	r0, r3
 800085c:	f7ff ff40 	bl	80006e0 <__aeabi_fcmpgt>
 8000860:	4603      	mov	r3, r0
 8000862:	2b00      	cmp	r3, #0
 8000864:	d009      	beq.n	800087a <Simulation_signal+0x42>
        phaseCh1 -= 6.28318f;
 8000866:	4b8a      	ldr	r3, [pc, #552]	; (8000a90 <Simulation_signal+0x258>)
 8000868:	681b      	ldr	r3, [r3, #0]
 800086a:	498b      	ldr	r1, [pc, #556]	; (8000a98 <Simulation_signal+0x260>)
 800086c:	4618      	mov	r0, r3
 800086e:	f7ff fc71 	bl	8000154 <__aeabi_fsub>
 8000872:	4603      	mov	r3, r0
 8000874:	461a      	mov	r2, r3
 8000876:	4b86      	ldr	r3, [pc, #536]	; (8000a90 <Simulation_signal+0x258>)
 8000878:	601a      	str	r2, [r3, #0]
    Channel_1 = offsetCh1 + amplitude_Ch1 * sinf(phaseCh1);
 800087a:	4b85      	ldr	r3, [pc, #532]	; (8000a90 <Simulation_signal+0x258>)
 800087c:	681b      	ldr	r3, [r3, #0]
 800087e:	4618      	mov	r0, r3
 8000880:	f001 feea 	bl	8002658 <sinf>
 8000884:	4602      	mov	r2, r0
 8000886:	4b85      	ldr	r3, [pc, #532]	; (8000a9c <Simulation_signal+0x264>)
 8000888:	681b      	ldr	r3, [r3, #0]
 800088a:	4619      	mov	r1, r3
 800088c:	4610      	mov	r0, r2
 800088e:	f7ff fd6b 	bl	8000368 <__aeabi_fmul>
 8000892:	4603      	mov	r3, r0
 8000894:	461a      	mov	r2, r3
 8000896:	4b82      	ldr	r3, [pc, #520]	; (8000aa0 <Simulation_signal+0x268>)
 8000898:	681b      	ldr	r3, [r3, #0]
 800089a:	4619      	mov	r1, r3
 800089c:	4610      	mov	r0, r2
 800089e:	f7ff fc5b 	bl	8000158 <__addsf3>
 80008a2:	4603      	mov	r3, r0
 80008a4:	461a      	mov	r2, r3
 80008a6:	4b7f      	ldr	r3, [pc, #508]	; (8000aa4 <Simulation_signal+0x26c>)
 80008a8:	601a      	str	r2, [r3, #0]

    // Обновляем Channel_2 - плавное изменение с случайным блужданием
    // 2% шанс изменения цели
    if ((rand() % 100) < 2) {
 80008aa:	f000 fec9 	bl	8001640 <rand>
 80008ae:	4602      	mov	r2, r0
 80008b0:	4b7d      	ldr	r3, [pc, #500]	; (8000aa8 <Simulation_signal+0x270>)
 80008b2:	fb83 1302 	smull	r1, r3, r3, r2
 80008b6:	1159      	asrs	r1, r3, #5
 80008b8:	17d3      	asrs	r3, r2, #31
 80008ba:	1acb      	subs	r3, r1, r3
 80008bc:	2164      	movs	r1, #100	; 0x64
 80008be:	fb01 f303 	mul.w	r3, r1, r3
 80008c2:	1ad3      	subs	r3, r2, r3
 80008c4:	2b01      	cmp	r3, #1
 80008c6:	dc30      	bgt.n	800092a <Simulation_signal+0xf2>
        // Новая цель от minCh2 до maxCh2
        targetCh2 = minCh2 + ((float)(rand() % 10000) / 10000.0f) * (maxCh2 - minCh2);
 80008c8:	f000 feba 	bl	8001640 <rand>
 80008cc:	4602      	mov	r2, r0
 80008ce:	4b77      	ldr	r3, [pc, #476]	; (8000aac <Simulation_signal+0x274>)
 80008d0:	fb83 1302 	smull	r1, r3, r3, r2
 80008d4:	1319      	asrs	r1, r3, #12
 80008d6:	17d3      	asrs	r3, r2, #31
 80008d8:	1acb      	subs	r3, r1, r3
 80008da:	f242 7110 	movw	r1, #10000	; 0x2710
 80008de:	fb01 f303 	mul.w	r3, r1, r3
 80008e2:	1ad3      	subs	r3, r2, r3
 80008e4:	4618      	mov	r0, r3
 80008e6:	f7ff fceb 	bl	80002c0 <__aeabi_i2f>
 80008ea:	4603      	mov	r3, r0
 80008ec:	4970      	ldr	r1, [pc, #448]	; (8000ab0 <Simulation_signal+0x278>)
 80008ee:	4618      	mov	r0, r3
 80008f0:	f7ff fdee 	bl	80004d0 <__aeabi_fdiv>
 80008f4:	4603      	mov	r3, r0
 80008f6:	461c      	mov	r4, r3
 80008f8:	4b6e      	ldr	r3, [pc, #440]	; (8000ab4 <Simulation_signal+0x27c>)
 80008fa:	681b      	ldr	r3, [r3, #0]
 80008fc:	4a6e      	ldr	r2, [pc, #440]	; (8000ab8 <Simulation_signal+0x280>)
 80008fe:	6812      	ldr	r2, [r2, #0]
 8000900:	4611      	mov	r1, r2
 8000902:	4618      	mov	r0, r3
 8000904:	f7ff fc26 	bl	8000154 <__aeabi_fsub>
 8000908:	4603      	mov	r3, r0
 800090a:	4619      	mov	r1, r3
 800090c:	4620      	mov	r0, r4
 800090e:	f7ff fd2b 	bl	8000368 <__aeabi_fmul>
 8000912:	4603      	mov	r3, r0
 8000914:	461a      	mov	r2, r3
 8000916:	4b68      	ldr	r3, [pc, #416]	; (8000ab8 <Simulation_signal+0x280>)
 8000918:	681b      	ldr	r3, [r3, #0]
 800091a:	4619      	mov	r1, r3
 800091c:	4610      	mov	r0, r2
 800091e:	f7ff fc1b 	bl	8000158 <__addsf3>
 8000922:	4603      	mov	r3, r0
 8000924:	461a      	mov	r2, r3
 8000926:	4b65      	ldr	r3, [pc, #404]	; (8000abc <Simulation_signal+0x284>)
 8000928:	601a      	str	r2, [r3, #0]
    }

    // Плавно движемся к целевой точке
    if (currentCh2 < targetCh2) {
 800092a:	4b65      	ldr	r3, [pc, #404]	; (8000ac0 <Simulation_signal+0x288>)
 800092c:	681b      	ldr	r3, [r3, #0]
 800092e:	4a63      	ldr	r2, [pc, #396]	; (8000abc <Simulation_signal+0x284>)
 8000930:	6812      	ldr	r2, [r2, #0]
 8000932:	4611      	mov	r1, r2
 8000934:	4618      	mov	r0, r3
 8000936:	f7ff feb5 	bl	80006a4 <__aeabi_fcmplt>
 800093a:	4603      	mov	r3, r0
 800093c:	2b00      	cmp	r3, #0
 800093e:	d02a      	beq.n	8000996 <Simulation_signal+0x15e>
        currentCh2 += (targetCh2 - currentCh2) * smoothFactor;
 8000940:	4b5e      	ldr	r3, [pc, #376]	; (8000abc <Simulation_signal+0x284>)
 8000942:	681b      	ldr	r3, [r3, #0]
 8000944:	4a5e      	ldr	r2, [pc, #376]	; (8000ac0 <Simulation_signal+0x288>)
 8000946:	6812      	ldr	r2, [r2, #0]
 8000948:	4611      	mov	r1, r2
 800094a:	4618      	mov	r0, r3
 800094c:	f7ff fc02 	bl	8000154 <__aeabi_fsub>
 8000950:	4603      	mov	r3, r0
 8000952:	461a      	mov	r2, r3
 8000954:	4b5b      	ldr	r3, [pc, #364]	; (8000ac4 <Simulation_signal+0x28c>)
 8000956:	4619      	mov	r1, r3
 8000958:	4610      	mov	r0, r2
 800095a:	f7ff fd05 	bl	8000368 <__aeabi_fmul>
 800095e:	4603      	mov	r3, r0
 8000960:	461a      	mov	r2, r3
 8000962:	4b57      	ldr	r3, [pc, #348]	; (8000ac0 <Simulation_signal+0x288>)
 8000964:	681b      	ldr	r3, [r3, #0]
 8000966:	4619      	mov	r1, r3
 8000968:	4610      	mov	r0, r2
 800096a:	f7ff fbf5 	bl	8000158 <__addsf3>
 800096e:	4603      	mov	r3, r0
 8000970:	461a      	mov	r2, r3
 8000972:	4b53      	ldr	r3, [pc, #332]	; (8000ac0 <Simulation_signal+0x288>)
 8000974:	601a      	str	r2, [r3, #0]
        if (currentCh2 > targetCh2)
 8000976:	4b52      	ldr	r3, [pc, #328]	; (8000ac0 <Simulation_signal+0x288>)
 8000978:	681b      	ldr	r3, [r3, #0]
 800097a:	4a50      	ldr	r2, [pc, #320]	; (8000abc <Simulation_signal+0x284>)
 800097c:	6812      	ldr	r2, [r2, #0]
 800097e:	4611      	mov	r1, r2
 8000980:	4618      	mov	r0, r3
 8000982:	f7ff fead 	bl	80006e0 <__aeabi_fcmpgt>
 8000986:	4603      	mov	r3, r0
 8000988:	2b00      	cmp	r3, #0
 800098a:	d038      	beq.n	80009fe <Simulation_signal+0x1c6>
            currentCh2 = targetCh2;
 800098c:	4b4b      	ldr	r3, [pc, #300]	; (8000abc <Simulation_signal+0x284>)
 800098e:	681b      	ldr	r3, [r3, #0]
 8000990:	4a4b      	ldr	r2, [pc, #300]	; (8000ac0 <Simulation_signal+0x288>)
 8000992:	6013      	str	r3, [r2, #0]
 8000994:	e033      	b.n	80009fe <Simulation_signal+0x1c6>
    } else if (currentCh2 > targetCh2) {
 8000996:	4b4a      	ldr	r3, [pc, #296]	; (8000ac0 <Simulation_signal+0x288>)
 8000998:	681b      	ldr	r3, [r3, #0]
 800099a:	4a48      	ldr	r2, [pc, #288]	; (8000abc <Simulation_signal+0x284>)
 800099c:	6812      	ldr	r2, [r2, #0]
 800099e:	4611      	mov	r1, r2
 80009a0:	4618      	mov	r0, r3
 80009a2:	f7ff fe9d 	bl	80006e0 <__aeabi_fcmpgt>
 80009a6:	4603      	mov	r3, r0
 80009a8:	2b00      	cmp	r3, #0
 80009aa:	d028      	beq.n	80009fe <Simulation_signal+0x1c6>
        currentCh2 -= (currentCh2 - targetCh2) * smoothFactor;
 80009ac:	4b44      	ldr	r3, [pc, #272]	; (8000ac0 <Simulation_signal+0x288>)
 80009ae:	681c      	ldr	r4, [r3, #0]
 80009b0:	4b43      	ldr	r3, [pc, #268]	; (8000ac0 <Simulation_signal+0x288>)
 80009b2:	681b      	ldr	r3, [r3, #0]
 80009b4:	4a41      	ldr	r2, [pc, #260]	; (8000abc <Simulation_signal+0x284>)
 80009b6:	6812      	ldr	r2, [r2, #0]
 80009b8:	4611      	mov	r1, r2
 80009ba:	4618      	mov	r0, r3
 80009bc:	f7ff fbca 	bl	8000154 <__aeabi_fsub>
 80009c0:	4603      	mov	r3, r0
 80009c2:	461a      	mov	r2, r3
 80009c4:	4b3f      	ldr	r3, [pc, #252]	; (8000ac4 <Simulation_signal+0x28c>)
 80009c6:	4619      	mov	r1, r3
 80009c8:	4610      	mov	r0, r2
 80009ca:	f7ff fccd 	bl	8000368 <__aeabi_fmul>
 80009ce:	4603      	mov	r3, r0
 80009d0:	4619      	mov	r1, r3
 80009d2:	4620      	mov	r0, r4
 80009d4:	f7ff fbbe 	bl	8000154 <__aeabi_fsub>
 80009d8:	4603      	mov	r3, r0
 80009da:	461a      	mov	r2, r3
 80009dc:	4b38      	ldr	r3, [pc, #224]	; (8000ac0 <Simulation_signal+0x288>)
 80009de:	601a      	str	r2, [r3, #0]
        if (currentCh2 < targetCh2)
 80009e0:	4b37      	ldr	r3, [pc, #220]	; (8000ac0 <Simulation_signal+0x288>)
 80009e2:	681b      	ldr	r3, [r3, #0]
 80009e4:	4a35      	ldr	r2, [pc, #212]	; (8000abc <Simulation_signal+0x284>)
 80009e6:	6812      	ldr	r2, [r2, #0]
 80009e8:	4611      	mov	r1, r2
 80009ea:	4618      	mov	r0, r3
 80009ec:	f7ff fe5a 	bl	80006a4 <__aeabi_fcmplt>
 80009f0:	4603      	mov	r3, r0
 80009f2:	2b00      	cmp	r3, #0
 80009f4:	d003      	beq.n	80009fe <Simulation_signal+0x1c6>
            currentCh2 = targetCh2;
 80009f6:	4b31      	ldr	r3, [pc, #196]	; (8000abc <Simulation_signal+0x284>)
 80009f8:	681b      	ldr	r3, [r3, #0]
 80009fa:	4a31      	ldr	r2, [pc, #196]	; (8000ac0 <Simulation_signal+0x288>)
 80009fc:	6013      	str	r3, [r2, #0]
    }

    // Добавляем небольшие естественные колебания
    float noise = ((float)(rand() % 100) - 50.0f) / 500.0f;
 80009fe:	f000 fe1f 	bl	8001640 <rand>
 8000a02:	4602      	mov	r2, r0
 8000a04:	4b28      	ldr	r3, [pc, #160]	; (8000aa8 <Simulation_signal+0x270>)
 8000a06:	fb83 1302 	smull	r1, r3, r3, r2
 8000a0a:	1159      	asrs	r1, r3, #5
 8000a0c:	17d3      	asrs	r3, r2, #31
 8000a0e:	1acb      	subs	r3, r1, r3
 8000a10:	2164      	movs	r1, #100	; 0x64
 8000a12:	fb01 f303 	mul.w	r3, r1, r3
 8000a16:	1ad3      	subs	r3, r2, r3
 8000a18:	4618      	mov	r0, r3
 8000a1a:	f7ff fc51 	bl	80002c0 <__aeabi_i2f>
 8000a1e:	4603      	mov	r3, r0
 8000a20:	4929      	ldr	r1, [pc, #164]	; (8000ac8 <Simulation_signal+0x290>)
 8000a22:	4618      	mov	r0, r3
 8000a24:	f7ff fb96 	bl	8000154 <__aeabi_fsub>
 8000a28:	4603      	mov	r3, r0
 8000a2a:	4928      	ldr	r1, [pc, #160]	; (8000acc <Simulation_signal+0x294>)
 8000a2c:	4618      	mov	r0, r3
 8000a2e:	f7ff fd4f 	bl	80004d0 <__aeabi_fdiv>
 8000a32:	4603      	mov	r3, r0
 8000a34:	607b      	str	r3, [r7, #4]
    Channel_2 = currentCh2 + noise;
 8000a36:	4b22      	ldr	r3, [pc, #136]	; (8000ac0 <Simulation_signal+0x288>)
 8000a38:	681b      	ldr	r3, [r3, #0]
 8000a3a:	6879      	ldr	r1, [r7, #4]
 8000a3c:	4618      	mov	r0, r3
 8000a3e:	f7ff fb8b 	bl	8000158 <__addsf3>
 8000a42:	4603      	mov	r3, r0
 8000a44:	461a      	mov	r2, r3
 8000a46:	4b22      	ldr	r3, [pc, #136]	; (8000ad0 <Simulation_signal+0x298>)
 8000a48:	601a      	str	r2, [r3, #0]

    // Ограничиваем Channel_2 в разумных пределах
    if (Channel_2 < minCh2) Channel_2 = minCh2;
 8000a4a:	4b21      	ldr	r3, [pc, #132]	; (8000ad0 <Simulation_signal+0x298>)
 8000a4c:	681b      	ldr	r3, [r3, #0]
 8000a4e:	4a1a      	ldr	r2, [pc, #104]	; (8000ab8 <Simulation_signal+0x280>)
 8000a50:	6812      	ldr	r2, [r2, #0]
 8000a52:	4611      	mov	r1, r2
 8000a54:	4618      	mov	r0, r3
 8000a56:	f7ff fe25 	bl	80006a4 <__aeabi_fcmplt>
 8000a5a:	4603      	mov	r3, r0
 8000a5c:	2b00      	cmp	r3, #0
 8000a5e:	d003      	beq.n	8000a68 <Simulation_signal+0x230>
 8000a60:	4b15      	ldr	r3, [pc, #84]	; (8000ab8 <Simulation_signal+0x280>)
 8000a62:	681b      	ldr	r3, [r3, #0]
 8000a64:	4a1a      	ldr	r2, [pc, #104]	; (8000ad0 <Simulation_signal+0x298>)
 8000a66:	6013      	str	r3, [r2, #0]
    if (Channel_2 > maxCh2) Channel_2 = maxCh2;
 8000a68:	4b19      	ldr	r3, [pc, #100]	; (8000ad0 <Simulation_signal+0x298>)
 8000a6a:	681b      	ldr	r3, [r3, #0]
 8000a6c:	4a11      	ldr	r2, [pc, #68]	; (8000ab4 <Simulation_signal+0x27c>)
 8000a6e:	6812      	ldr	r2, [r2, #0]
 8000a70:	4611      	mov	r1, r2
 8000a72:	4618      	mov	r0, r3
 8000a74:	f7ff fe34 	bl	80006e0 <__aeabi_fcmpgt>
 8000a78:	4603      	mov	r3, r0
 8000a7a:	2b00      	cmp	r3, #0
 8000a7c:	d100      	bne.n	8000a80 <Simulation_signal+0x248>
}
 8000a7e:	e003      	b.n	8000a88 <Simulation_signal+0x250>
    if (Channel_2 > maxCh2) Channel_2 = maxCh2;
 8000a80:	4b0c      	ldr	r3, [pc, #48]	; (8000ab4 <Simulation_signal+0x27c>)
 8000a82:	681b      	ldr	r3, [r3, #0]
 8000a84:	4a12      	ldr	r2, [pc, #72]	; (8000ad0 <Simulation_signal+0x298>)
 8000a86:	6013      	str	r3, [r2, #0]
}
 8000a88:	bf00      	nop
 8000a8a:	370c      	adds	r7, #12
 8000a8c:	46bd      	mov	sp, r7
 8000a8e:	bd90      	pop	{r4, r7, pc}
 8000a90:	200000a8 	.word	0x200000a8
 8000a94:	3ca3d70a 	.word	0x3ca3d70a
 8000a98:	40c90fd0 	.word	0x40c90fd0
 8000a9c:	20000004 	.word	0x20000004
 8000aa0:	20000008 	.word	0x20000008
 8000aa4:	200000a0 	.word	0x200000a0
 8000aa8:	51eb851f 	.word	0x51eb851f
 8000aac:	68db8bad 	.word	0x68db8bad
 8000ab0:	461c4000 	.word	0x461c4000
 8000ab4:	20000018 	.word	0x20000018
 8000ab8:	20000014 	.word	0x20000014
 8000abc:	2000000c 	.word	0x2000000c
 8000ac0:	20000010 	.word	0x20000010
 8000ac4:	3c23d70a 	.word	0x3c23d70a
 8000ac8:	42480000 	.word	0x42480000
 8000acc:	43fa0000 	.word	0x43fa0000
 8000ad0:	200000a4 	.word	0x200000a4

08000ad4 <simulation_signal_init>:

void simulation_signal_init(void){
 8000ad4:	b580      	push	{r7, lr}
 8000ad6:	af00      	add	r7, sp, #0
	// Инициализируем начальные значения
	Channel_1 = offsetCh1;
 8000ad8:	4b05      	ldr	r3, [pc, #20]	; (8000af0 <simulation_signal_init+0x1c>)
 8000ada:	681b      	ldr	r3, [r3, #0]
 8000adc:	4a05      	ldr	r2, [pc, #20]	; (8000af4 <simulation_signal_init+0x20>)
 8000ade:	6013      	str	r3, [r2, #0]
	Channel_2 = currentCh2;
 8000ae0:	4b05      	ldr	r3, [pc, #20]	; (8000af8 <simulation_signal_init+0x24>)
 8000ae2:	681b      	ldr	r3, [r3, #0]
 8000ae4:	4a05      	ldr	r2, [pc, #20]	; (8000afc <simulation_signal_init+0x28>)
 8000ae6:	6013      	str	r3, [r2, #0]
	init_random();
 8000ae8:	f7ff fe9c 	bl	8000824 <init_random>
}
 8000aec:	bf00      	nop
 8000aee:	bd80      	pop	{r7, pc}
 8000af0:	20000008 	.word	0x20000008
 8000af4:	200000a0 	.word	0x200000a0
 8000af8:	20000010 	.word	0x20000010
 8000afc:	200000a4 	.word	0x200000a4

08000b00 <__NVIC_EnableIRQ>:
  \details Enables a device specific interrupt in the NVIC interrupt controller.
  \param [in]      IRQn  Device specific interrupt number.
  \note    IRQn must not be negative.
 */
__STATIC_INLINE void __NVIC_EnableIRQ(IRQn_Type IRQn)
{
 8000b00:	b480      	push	{r7}
 8000b02:	b083      	sub	sp, #12
 8000b04:	af00      	add	r7, sp, #0
 8000b06:	4603      	mov	r3, r0
 8000b08:	71fb      	strb	r3, [r7, #7]
  if ((int32_t)(IRQn) >= 0)
 8000b0a:	f997 3007 	ldrsb.w	r3, [r7, #7]
 8000b0e:	2b00      	cmp	r3, #0
 8000b10:	db0b      	blt.n	8000b2a <__NVIC_EnableIRQ+0x2a>
  {
    NVIC->ISER[(((uint32_t)IRQn) >> 5UL)] = (uint32_t)(1UL << (((uint32_t)IRQn) & 0x1FUL));
 8000b12:	79fb      	ldrb	r3, [r7, #7]
 8000b14:	f003 021f 	and.w	r2, r3, #31
 8000b18:	4906      	ldr	r1, [pc, #24]	; (8000b34 <__NVIC_EnableIRQ+0x34>)
 8000b1a:	f997 3007 	ldrsb.w	r3, [r7, #7]
 8000b1e:	095b      	lsrs	r3, r3, #5
 8000b20:	2001      	movs	r0, #1
 8000b22:	fa00 f202 	lsl.w	r2, r0, r2
 8000b26:	f841 2023 	str.w	r2, [r1, r3, lsl #2]
  }
}
 8000b2a:	bf00      	nop
 8000b2c:	370c      	adds	r7, #12
 8000b2e:	46bd      	mov	sp, r7
 8000b30:	bc80      	pop	{r7}
 8000b32:	4770      	bx	lr
 8000b34:	e000e100 	.word	0xe000e100

08000b38 <CMSIS_Debug_init>:
*  Reference Manual/см. п.9.3.5 JTAG/SWD alternate function remapping (стр. 177)
*  Наверное это нужно настраивать в самом начале, еще до тактирования...
***************************************************************************************
*/

void CMSIS_Debug_init(void) {
 8000b38:	b480      	push	{r7}
 8000b3a:	af00      	add	r7, sp, #0
     *  JTCK / SWCLK PA14
     *  JTDI PA15
     *  JTDO / TRACESWO PB3
     *  NJTRST PB4
     */
    SET_BIT(RCC->APB2ENR, RCC_APB2ENR_IOPAEN);  // Включим тактирование порта A
 8000b3c:	4b12      	ldr	r3, [pc, #72]	; (8000b88 <CMSIS_Debug_init+0x50>)
 8000b3e:	699b      	ldr	r3, [r3, #24]
 8000b40:	4a11      	ldr	r2, [pc, #68]	; (8000b88 <CMSIS_Debug_init+0x50>)
 8000b42:	f043 0304 	orr.w	r3, r3, #4
 8000b46:	6193      	str	r3, [r2, #24]
    SET_BIT(RCC->APB2ENR, RCC_APB2ENR_AFIOEN);  // Включим тактирование альтернативных функций
 8000b48:	4b0f      	ldr	r3, [pc, #60]	; (8000b88 <CMSIS_Debug_init+0x50>)
 8000b4a:	699b      	ldr	r3, [r3, #24]
 8000b4c:	4a0e      	ldr	r2, [pc, #56]	; (8000b88 <CMSIS_Debug_init+0x50>)
 8000b4e:	f043 0301 	orr.w	r3, r3, #1
 8000b52:	6193      	str	r3, [r2, #24]
     *  010: JTAG-DP Disabled and SW-DP Enabled               (Serial wire)
     *  100: JTAG-DP Disabled and SW-DP Disabled              (No Debug)
     *  Other combinations: no effect
     */

    MODIFY_REG(AFIO->MAPR, AFIO_MAPR_SWJ_CFG, 0b010 << AFIO_MAPR_SWJ_CFG_Pos);  // Serial wire
 8000b54:	4b0d      	ldr	r3, [pc, #52]	; (8000b8c <CMSIS_Debug_init+0x54>)
 8000b56:	685b      	ldr	r3, [r3, #4]
 8000b58:	f023 63e0 	bic.w	r3, r3, #117440512	; 0x7000000
 8000b5c:	4a0b      	ldr	r2, [pc, #44]	; (8000b8c <CMSIS_Debug_init+0x54>)
 8000b5e:	f043 7300 	orr.w	r3, r3, #33554432	; 0x2000000
 8000b62:	6053      	str	r3, [r2, #4]
     *  PA13 /JTMS/SWDIO
     *  PA14 /JTCK/SWCLK.
     *  PA15, PB3 и PB4 свободны
     */
    /*Заблокируем доступ для редактирования конфигурации PA13 и PA14*/
    GPIOA->LCKR = GPIO_LCKR_LCKK | GPIO_LCKR_LCK13 | GPIO_LCKR_LCK14;
 8000b64:	4b0a      	ldr	r3, [pc, #40]	; (8000b90 <CMSIS_Debug_init+0x58>)
 8000b66:	f44f 32b0 	mov.w	r2, #90112	; 0x16000
 8000b6a:	619a      	str	r2, [r3, #24]
    GPIOA->LCKR = GPIO_LCKR_LCK13 | GPIO_LCKR_LCK14;
 8000b6c:	4b08      	ldr	r3, [pc, #32]	; (8000b90 <CMSIS_Debug_init+0x58>)
 8000b6e:	f44f 42c0 	mov.w	r2, #24576	; 0x6000
 8000b72:	619a      	str	r2, [r3, #24]
    GPIOA->LCKR = GPIO_LCKR_LCKK | GPIO_LCKR_LCK13 | GPIO_LCKR_LCK14;
 8000b74:	4b06      	ldr	r3, [pc, #24]	; (8000b90 <CMSIS_Debug_init+0x58>)
 8000b76:	f44f 32b0 	mov.w	r2, #90112	; 0x16000
 8000b7a:	619a      	str	r2, [r3, #24]
    GPIOA->LCKR;
 8000b7c:	4b04      	ldr	r3, [pc, #16]	; (8000b90 <CMSIS_Debug_init+0x58>)
 8000b7e:	699b      	ldr	r3, [r3, #24]
}
 8000b80:	bf00      	nop
 8000b82:	46bd      	mov	sp, r7
 8000b84:	bc80      	pop	{r7}
 8000b86:	4770      	bx	lr
 8000b88:	40021000 	.word	0x40021000
 8000b8c:	40010000 	.word	0x40010000
 8000b90:	40010800 	.word	0x40010800

08000b94 <CMSIS_RCC_SystemClock_72MHz>:
 *  В настройке также необходимо настроить FLASH на работу, совместимую с 72MHz:
 *  Reference Manual/см. п.3.2 Memory organization (стр. 49)
 ***************************************************************************************
 */

void CMSIS_RCC_SystemClock_72MHz(void) {
 8000b94:	b480      	push	{r7}
 8000b96:	af00      	add	r7, sp, #0
     *  as system clock or is selected to become the system clock.
     *  0 : internal 8 MHz RC oscillator OFF
     *  1 : internal 8 MHz RC oscillator ON
     */

    SET_BIT(RCC->CR, RCC_CR_HSION);  // Запустим внутренний RC генератор на 8 МГц
 8000b98:	4b47      	ldr	r3, [pc, #284]	; (8000cb8 <CMSIS_RCC_SystemClock_72MHz+0x124>)
 8000b9a:	681b      	ldr	r3, [r3, #0]
 8000b9c:	4a46      	ldr	r2, [pc, #280]	; (8000cb8 <CMSIS_RCC_SystemClock_72MHz+0x124>)
 8000b9e:	f043 0301 	orr.w	r3, r3, #1
 8000ba2:	6013      	str	r3, [r2, #0]
     *  cleared, HSIRDY goes low after 6 internal 8 MHz RC oscillator clock cycles.
     *  0 : internal 8 MHz RC oscillator not ready
     *  1 : internal 8 MHz RC oscillator ready
     */

    while (READ_BIT(RCC->CR, RCC_CR_HSIRDY) == 0);  // Дождемся поднятия флага о готовности
 8000ba4:	bf00      	nop
 8000ba6:	4b44      	ldr	r3, [pc, #272]	; (8000cb8 <CMSIS_RCC_SystemClock_72MHz+0x124>)
 8000ba8:	681b      	ldr	r3, [r3, #0]
 8000baa:	f003 0302 	and.w	r3, r3, #2
 8000bae:	2b00      	cmp	r3, #0
 8000bb0:	d0f9      	beq.n	8000ba6 <CMSIS_RCC_SystemClock_72MHz+0x12>
     *  can be written only if the HSE oscillator is disabled.
     *  0: external 4-16 MHz oscillator not bypassed
     *  1: external 4-16 MHz oscillator bypassed with external clock
     */

    CLEAR_BIT(RCC->CR, RCC_CR_HSEBYP);  // Просто сбросим этот бит в 0(Хотя изначально он и так должен быть в 0).
 8000bb2:	4b41      	ldr	r3, [pc, #260]	; (8000cb8 <CMSIS_RCC_SystemClock_72MHz+0x124>)
 8000bb4:	681b      	ldr	r3, [r3, #0]
 8000bb6:	4a40      	ldr	r2, [pc, #256]	; (8000cb8 <CMSIS_RCC_SystemClock_72MHz+0x124>)
 8000bb8:	f423 2380 	bic.w	r3, r3, #262144	; 0x40000
 8000bbc:	6013      	str	r3, [r2, #0]
     *  bit cannot be reset if the HSE oscillator is used directly or indirectly as the system clock.
     *  0: HSE oscillator OFF
     *  1: HSE oscillator ON
     */

    SET_BIT(RCC->CR, RCC_CR_HSEON);  // Запустим внешний кварцевый резонатор. Он у нас на 8 MHz.
 8000bbe:	4b3e      	ldr	r3, [pc, #248]	; (8000cb8 <CMSIS_RCC_SystemClock_72MHz+0x124>)
 8000bc0:	681b      	ldr	r3, [r3, #0]
 8000bc2:	4a3d      	ldr	r2, [pc, #244]	; (8000cb8 <CMSIS_RCC_SystemClock_72MHz+0x124>)
 8000bc4:	f443 3380 	orr.w	r3, r3, #65536	; 0x10000
 8000bc8:	6013      	str	r3, [r2, #0]
     *  HSE oscillator clock to fall down after HSEON reset.
     *  0: HSE oscillator not ready
     *  1: HSE oscillator ready
     */

    while (READ_BIT(RCC->CR, RCC_CR_HSERDY) == 0);  // Дождемся поднятия флага о готовности
 8000bca:	bf00      	nop
 8000bcc:	4b3a      	ldr	r3, [pc, #232]	; (8000cb8 <CMSIS_RCC_SystemClock_72MHz+0x124>)
 8000bce:	681b      	ldr	r3, [r3, #0]
 8000bd0:	f403 3300 	and.w	r3, r3, #131072	; 0x20000
 8000bd4:	2b00      	cmp	r3, #0
 8000bd6:	d0f9      	beq.n	8000bcc <CMSIS_RCC_SystemClock_72MHz+0x38>
     *  hardware if a HSE clock failure is detected.
     *  0: Clock detector OFF
     *  1: Clock detector ON (Clock detector ON if the HSE oscillator is ready , OFF if not).
     */

    SET_BIT(RCC->CR, RCC_CR_CSSON);  // Включим CSS
 8000bd8:	4b37      	ldr	r3, [pc, #220]	; (8000cb8 <CMSIS_RCC_SystemClock_72MHz+0x124>)
 8000bda:	681b      	ldr	r3, [r3, #0]
 8000bdc:	4a36      	ldr	r2, [pc, #216]	; (8000cb8 <CMSIS_RCC_SystemClock_72MHz+0x124>)
 8000bde:	f443 2300 	orr.w	r3, r3, #524288	; 0x80000
 8000be2:	6013      	str	r3, [r2, #0]
     *  01: HSE selected as system clock
     *  10: PLL selected as system clock
     *  11: not allowed
     */

    MODIFY_REG(RCC->CFGR, RCC_CFGR_SW, RCC_CFGR_SW_HSE);  // Выберем HSE в качестве System Clock(PLL лучше пока не выбирать, он у нас отключен)
 8000be4:	4b34      	ldr	r3, [pc, #208]	; (8000cb8 <CMSIS_RCC_SystemClock_72MHz+0x124>)
 8000be6:	685b      	ldr	r3, [r3, #4]
 8000be8:	f023 0303 	bic.w	r3, r3, #3
 8000bec:	4a32      	ldr	r2, [pc, #200]	; (8000cb8 <CMSIS_RCC_SystemClock_72MHz+0x124>)
 8000bee:	f043 0301 	orr.w	r3, r3, #1
 8000bf2:	6053      	str	r3, [r2, #4]
     *  1110: SYSCLK divided by 256
     *  1111: SYSCLK divided by 512
     *  Note: The prefetch buffer must be kept on when using a prescaler different from 1 on the
     *  AHB clock. Refer to Reading the Flash memory section for more details.
     */
    MODIFY_REG(RCC->CFGR, RCC_CFGR_HPRE, RCC_CFGR_HPRE_DIV1);  // APB Prescaler /1
 8000bf4:	4b30      	ldr	r3, [pc, #192]	; (8000cb8 <CMSIS_RCC_SystemClock_72MHz+0x124>)
 8000bf6:	685b      	ldr	r3, [r3, #4]
 8000bf8:	4a2f      	ldr	r2, [pc, #188]	; (8000cb8 <CMSIS_RCC_SystemClock_72MHz+0x124>)
 8000bfa:	f023 03f0 	bic.w	r3, r3, #240	; 0xf0
 8000bfe:	6053      	str	r3, [r2, #4]
     *  000 Zero wait state, if 0 < SYSCLK <= 24 MHz
     *  001 One wait state, if 24 MHz < SYSCLK <= 48 MHz
     *  010 Two wait states, if 48 MHz < SYSCLK <= 72 MHz
     */

    MODIFY_REG(FLASH->ACR, FLASH_ACR_LATENCY, 0b010 << FLASH_ACR_LATENCY_Pos);  // 010 Two wait states, if 48 MHz < SYSCLK <= 72 MHz
 8000c00:	4b2e      	ldr	r3, [pc, #184]	; (8000cbc <CMSIS_RCC_SystemClock_72MHz+0x128>)
 8000c02:	681b      	ldr	r3, [r3, #0]
 8000c04:	f023 0307 	bic.w	r3, r3, #7
 8000c08:	4a2c      	ldr	r2, [pc, #176]	; (8000cbc <CMSIS_RCC_SystemClock_72MHz+0x128>)
 8000c0a:	f043 0302 	orr.w	r3, r3, #2
 8000c0e:	6013      	str	r3, [r2, #0]
     *  Bit 4 PRFTBE: Prefetch buffer enable
     *  0: Prefetch is disabled
     *  1: Prefetch is enabled
     */

    SET_BIT(FLASH->ACR, FLASH_ACR_PRFTBE);  // Prefetch is enabled
 8000c10:	4b2a      	ldr	r3, [pc, #168]	; (8000cbc <CMSIS_RCC_SystemClock_72MHz+0x128>)
 8000c12:	681b      	ldr	r3, [r3, #0]
 8000c14:	4a29      	ldr	r2, [pc, #164]	; (8000cbc <CMSIS_RCC_SystemClock_72MHz+0x128>)
 8000c16:	f043 0310 	orr.w	r3, r3, #16
 8000c1a:	6013      	str	r3, [r2, #0]
     *  100: HCLK divided by 2
     *  101: HCLK divided by 4
     *  110: HCLK divided by 8
     *  111: HCLK divided by 16
     */
    MODIFY_REG(RCC->CFGR, RCC_CFGR_PPRE1, RCC_CFGR_PPRE1_DIV2);  // APB1 Prescaler /2, т.к. PCLK1 max 36MHz
 8000c1c:	4b26      	ldr	r3, [pc, #152]	; (8000cb8 <CMSIS_RCC_SystemClock_72MHz+0x124>)
 8000c1e:	685b      	ldr	r3, [r3, #4]
 8000c20:	f423 63e0 	bic.w	r3, r3, #1792	; 0x700
 8000c24:	4a24      	ldr	r2, [pc, #144]	; (8000cb8 <CMSIS_RCC_SystemClock_72MHz+0x124>)
 8000c26:	f443 6380 	orr.w	r3, r3, #1024	; 0x400
 8000c2a:	6053      	str	r3, [r2, #4]
     *  101: HCLK divided by 4
     *  110: HCLK divided by 8
     *  111: HCLK divided by 16
     */

    MODIFY_REG(RCC->CFGR, RCC_CFGR_PPRE2, RCC_CFGR_PPRE2_DIV1);  // APB2 Prescaler /1. Тут нас ничего не ограничивает. Будет 72MHz.
 8000c2c:	4b22      	ldr	r3, [pc, #136]	; (8000cb8 <CMSIS_RCC_SystemClock_72MHz+0x124>)
 8000c2e:	685b      	ldr	r3, [r3, #4]
 8000c30:	4a21      	ldr	r2, [pc, #132]	; (8000cb8 <CMSIS_RCC_SystemClock_72MHz+0x124>)
 8000c32:	f423 5360 	bic.w	r3, r3, #14336	; 0x3800
 8000c36:	6053      	str	r3, [r2, #4]
     *  01: PCLK2 divided by 4
     *  10: PCLK2 divided by 6
     *  11: PCLK2 divided by 8
     */

    MODIFY_REG(RCC->CFGR, RCC_CFGR_ADCPRE, RCC_CFGR_ADCPRE_DIV6);  // ADC Prescaler /6, чтоб было 12MHz, т.к. максимальная частота тут 14 MHz
 8000c38:	4b1f      	ldr	r3, [pc, #124]	; (8000cb8 <CMSIS_RCC_SystemClock_72MHz+0x124>)
 8000c3a:	685b      	ldr	r3, [r3, #4]
 8000c3c:	f423 4340 	bic.w	r3, r3, #49152	; 0xc000
 8000c40:	4a1d      	ldr	r2, [pc, #116]	; (8000cb8 <CMSIS_RCC_SystemClock_72MHz+0x124>)
 8000c42:	f443 4300 	orr.w	r3, r3, #32768	; 0x8000
 8000c46:	6053      	str	r3, [r2, #4]
     *  Set and cleared by software to select PLL clock source. This bit can be written only when PLL is disabled.
     *  0: HSI oscillator clock / 2 selected as PLL input clock
     *  1: HSE oscillator clock selected as PLL input clock
     */

    SET_BIT(RCC->CFGR, RCC_CFGR_PLLSRC);  // В качестве входного сигнала для PLL выберем HSE
 8000c48:	4b1b      	ldr	r3, [pc, #108]	; (8000cb8 <CMSIS_RCC_SystemClock_72MHz+0x124>)
 8000c4a:	685b      	ldr	r3, [r3, #4]
 8000c4c:	4a1a      	ldr	r2, [pc, #104]	; (8000cb8 <CMSIS_RCC_SystemClock_72MHz+0x124>)
 8000c4e:	f443 3380 	orr.w	r3, r3, #65536	; 0x10000
 8000c52:	6053      	str	r3, [r2, #4]
     *  Set and cleared by software to divide HSE before PLL entry. This bit can be written only when PLL is disabled.
     *  0: HSE clock not divided
     *  1: HSE clock divided by 2
     */

    CLEAR_BIT(RCC->CFGR, RCC_CFGR_PLLXTPRE_HSE);  // Никакое предделение перед PLL нам не нужно. Поэтому /1.
 8000c54:	4b18      	ldr	r3, [pc, #96]	; (8000cb8 <CMSIS_RCC_SystemClock_72MHz+0x124>)
 8000c56:	4a18      	ldr	r2, [pc, #96]	; (8000cb8 <CMSIS_RCC_SystemClock_72MHz+0x124>)
 8000c58:	685b      	ldr	r3, [r3, #4]
 8000c5a:	6053      	str	r3, [r2, #4]
     *  1101: PLL input clock x 15
     *  1110: PLL input clock x 16
     *  1111: PLL input clock x 16
     */

    MODIFY_REG(RCC->CFGR, RCC_CFGR_PLLMULL, RCC_CFGR_PLLMULL9);  // т.к. кварц у нас 8Mhz, а нам нужно 72MHz, то в PLL нужно сделать умножение на 9. 8MHz * 9 = 72MHz.
 8000c5c:	4b16      	ldr	r3, [pc, #88]	; (8000cb8 <CMSIS_RCC_SystemClock_72MHz+0x124>)
 8000c5e:	685b      	ldr	r3, [r3, #4]
 8000c60:	f423 1370 	bic.w	r3, r3, #3932160	; 0x3c0000
 8000c64:	4a14      	ldr	r2, [pc, #80]	; (8000cb8 <CMSIS_RCC_SystemClock_72MHz+0x124>)
 8000c66:	f443 13e0 	orr.w	r3, r3, #1835008	; 0x1c0000
 8000c6a:	6053      	str	r3, [r2, #4]
     *  enabling the USB clock in the RCC_APB1ENR register. This bit can’t be reset if the USB clock is enabled.
     *  0: PLL clock is divided by 1.5
     *  1: PLL clock is not divided
     */

    CLEAR_BIT(RCC->CFGR, RCC_CFGR_USBPRE);  // Для USB 72MHz/1.5 = 48MHz
 8000c6c:	4b12      	ldr	r3, [pc, #72]	; (8000cb8 <CMSIS_RCC_SystemClock_72MHz+0x124>)
 8000c6e:	685b      	ldr	r3, [r3, #4]
 8000c70:	4a11      	ldr	r2, [pc, #68]	; (8000cb8 <CMSIS_RCC_SystemClock_72MHz+0x124>)
 8000c72:	f423 0380 	bic.w	r3, r3, #4194304	; 0x400000
 8000c76:	6053      	str	r3, [r2, #4]
     *  111: PLL clock divided by 2 selected
     *  Note: This clock output may have some truncated cycles at startup or during MCO clock source switching.
     *  When the System Clock is selected to output to the MCO pin, make sure that this clock does not exceed 50 MHz (the maximum IO speed).
     */

    MODIFY_REG(RCC->CFGR, RCC_CFGR_MCO, 0 << RCC_CFGR_MCO_Pos);  // Отключим MCO
 8000c78:	4b0f      	ldr	r3, [pc, #60]	; (8000cb8 <CMSIS_RCC_SystemClock_72MHz+0x124>)
 8000c7a:	685b      	ldr	r3, [r3, #4]
 8000c7c:	4a0e      	ldr	r2, [pc, #56]	; (8000cb8 <CMSIS_RCC_SystemClock_72MHz+0x124>)
 8000c7e:	f023 63e0 	bic.w	r3, r3, #117440512	; 0x7000000
 8000c82:	6053      	str	r3, [r2, #4]
     *  PLL clock is used as system clock or is selected to become the system clock.
     *  0: PLL OFF
     *  1: PLL ON
     */

    SET_BIT(RCC->CR, RCC_CR_PLLON);  // Запустим PLL
 8000c84:	4b0c      	ldr	r3, [pc, #48]	; (8000cb8 <CMSIS_RCC_SystemClock_72MHz+0x124>)
 8000c86:	681b      	ldr	r3, [r3, #0]
 8000c88:	4a0b      	ldr	r2, [pc, #44]	; (8000cb8 <CMSIS_RCC_SystemClock_72MHz+0x124>)
 8000c8a:	f043 7380 	orr.w	r3, r3, #16777216	; 0x1000000
 8000c8e:	6013      	str	r3, [r2, #0]

    // Т.к. PLL уже запущен, выберем его в качестве System Clock:
    MODIFY_REG(RCC->CFGR, RCC_CFGR_SW, RCC_CFGR_SW_PLL);  // Выберем PLL в качестве System Clock
 8000c90:	4b09      	ldr	r3, [pc, #36]	; (8000cb8 <CMSIS_RCC_SystemClock_72MHz+0x124>)
 8000c92:	685b      	ldr	r3, [r3, #4]
 8000c94:	f023 0303 	bic.w	r3, r3, #3
 8000c98:	4a07      	ldr	r2, [pc, #28]	; (8000cb8 <CMSIS_RCC_SystemClock_72MHz+0x124>)
 8000c9a:	f043 0302 	orr.w	r3, r3, #2
 8000c9e:	6053      	str	r3, [r2, #4]
     *  Set by hardware to indicate that the PLL is locked.
     *  0: PLL unlocked
     *  1: PLL locked
     */

    while (READ_BIT(RCC->CR, RCC_CR_PLLRDY) == 0);  // Дожидемся поднятия флага включения PLL
 8000ca0:	bf00      	nop
 8000ca2:	4b05      	ldr	r3, [pc, #20]	; (8000cb8 <CMSIS_RCC_SystemClock_72MHz+0x124>)
 8000ca4:	681b      	ldr	r3, [r3, #0]
 8000ca6:	f003 7300 	and.w	r3, r3, #33554432	; 0x2000000
 8000caa:	2b00      	cmp	r3, #0
 8000cac:	d0f9      	beq.n	8000ca2 <CMSIS_RCC_SystemClock_72MHz+0x10e>

    // В итоге должно получится:
    // RCC->CR == 0x030B5A83
    // RCC->CFGR == 0x071D840A
    // К сожалению, нельзя просто так взять и сразу применить значения регистров и настроить все в 2 строчки кода, т.к. порядок выполнения команд играет очень большую роль.
}
 8000cae:	bf00      	nop
 8000cb0:	bf00      	nop
 8000cb2:	46bd      	mov	sp, r7
 8000cb4:	bc80      	pop	{r7}
 8000cb6:	4770      	bx	lr
 8000cb8:	40021000 	.word	0x40021000
 8000cbc:	40022000 	.word	0x40022000

08000cc0 <CMSIS_SysTick_Timer_init>:
 *  На этом таймере мы настроим Delay и аналог HAL_GetTick()
 *  PM0056 STM32F10xxx/20xxx/21xxx/L1xxxx Cortex®-M3 programming manual/
 *  см. п.4.5 SysTick timer (STK) (стр. 150)
 ***************************************************************************************
 */
void CMSIS_SysTick_Timer_init(void) {
 8000cc0:	b480      	push	{r7}
 8000cc2:	af00      	add	r7, sp, #0
     *  value again, and begins counting.
     *  0 : Counter disabled
     *  1 : Counter enabled
     */

    CLEAR_BIT(SysTick->CTRL, SysTick_CTRL_ENABLE_Msk);  // Выключим таймер для проведения настроек.
 8000cc4:	4b15      	ldr	r3, [pc, #84]	; (8000d1c <CMSIS_SysTick_Timer_init+0x5c>)
 8000cc6:	681b      	ldr	r3, [r3, #0]
 8000cc8:	4a14      	ldr	r2, [pc, #80]	; (8000d1c <CMSIS_SysTick_Timer_init+0x5c>)
 8000cca:	f023 0301 	bic.w	r3, r3, #1
 8000cce:	6013      	str	r3, [r2, #0]
     *  Bit 1 TICKINT: SysTick exception request enable
     *  0: Counting down to zero does not assert the SysTick exception request
     *  1: Counting down to zero to asserts the SysTick exception request.
     *  Note: Software can use COUNTFLAG to determine if SysTick has ever counted to zero.
     */
    SET_BIT(SysTick->CTRL, SysTick_CTRL_TICKINT_Msk);  // Разрешим прерывания по таймеру
 8000cd0:	4b12      	ldr	r3, [pc, #72]	; (8000d1c <CMSIS_SysTick_Timer_init+0x5c>)
 8000cd2:	681b      	ldr	r3, [r3, #0]
 8000cd4:	4a11      	ldr	r2, [pc, #68]	; (8000d1c <CMSIS_SysTick_Timer_init+0x5c>)
 8000cd6:	f043 0302 	orr.w	r3, r3, #2
 8000cda:	6013      	str	r3, [r2, #0]
     *  Bit 2 CLKSOURCE : Clock source selection
     *  Selects the clock source.
     *  0 : AHB / 8
     *  1 : Processor clock(AHB)
     */
    SET_BIT(SysTick->CTRL, SysTick_CTRL_CLKSOURCE_Msk);  // Выберем без делителя. Будет 72MHz
 8000cdc:	4b0f      	ldr	r3, [pc, #60]	; (8000d1c <CMSIS_SysTick_Timer_init+0x5c>)
 8000cde:	681b      	ldr	r3, [r3, #0]
 8000ce0:	4a0e      	ldr	r2, [pc, #56]	; (8000d1c <CMSIS_SysTick_Timer_init+0x5c>)
 8000ce2:	f043 0304 	orr.w	r3, r3, #4
 8000ce6:	6013      	str	r3, [r2, #0]
     *  l To deliver a single SysTick interrupt after a delay of N processor clock cycles, use a
     *  RELOAD of value N.For example, if a SysTick interrupt is required after 400 clock
     *  pulses, set RELOAD to 400.
     */

    MODIFY_REG(SysTick->LOAD, SysTick_LOAD_RELOAD_Msk, 71999 << SysTick_LOAD_RELOAD_Pos);  // Настроим прерывание на частоту в 1 кГц(т.е. сработка будет каждую мс)
 8000ce8:	4b0c      	ldr	r3, [pc, #48]	; (8000d1c <CMSIS_SysTick_Timer_init+0x5c>)
 8000cea:	685b      	ldr	r3, [r3, #4]
 8000cec:	f003 427f 	and.w	r2, r3, #4278190080	; 0xff000000
 8000cf0:	490a      	ldr	r1, [pc, #40]	; (8000d1c <CMSIS_SysTick_Timer_init+0x5c>)
 8000cf2:	4b0b      	ldr	r3, [pc, #44]	; (8000d20 <CMSIS_SysTick_Timer_init+0x60>)
 8000cf4:	4313      	orrs	r3, r2
 8000cf6:	604b      	str	r3, [r1, #4]
     *  Reads return the current value of the SysTick counter.
     *  A write of any value clears the field to 0, and also clears the COUNTFLAG bit in the
     *  STK_CTRL register to 0
     */

    MODIFY_REG(SysTick->VAL, SysTick_VAL_CURRENT_Msk, 71999 << SysTick_VAL_CURRENT_Pos);  // Начнем считать с 71999
 8000cf8:	4b08      	ldr	r3, [pc, #32]	; (8000d1c <CMSIS_SysTick_Timer_init+0x5c>)
 8000cfa:	689b      	ldr	r3, [r3, #8]
 8000cfc:	f003 427f 	and.w	r2, r3, #4278190080	; 0xff000000
 8000d00:	4906      	ldr	r1, [pc, #24]	; (8000d1c <CMSIS_SysTick_Timer_init+0x5c>)
 8000d02:	4b07      	ldr	r3, [pc, #28]	; (8000d20 <CMSIS_SysTick_Timer_init+0x60>)
 8000d04:	4313      	orrs	r3, r2
 8000d06:	608b      	str	r3, [r1, #8]

    /*Есть там еще регистр калибровки, но я его трогать не буду*/

    SET_BIT(SysTick->CTRL, SysTick_CTRL_ENABLE_Msk);  // Запускаем таймер
 8000d08:	4b04      	ldr	r3, [pc, #16]	; (8000d1c <CMSIS_SysTick_Timer_init+0x5c>)
 8000d0a:	681b      	ldr	r3, [r3, #0]
 8000d0c:	4a03      	ldr	r2, [pc, #12]	; (8000d1c <CMSIS_SysTick_Timer_init+0x5c>)
 8000d0e:	f043 0301 	orr.w	r3, r3, #1
 8000d12:	6013      	str	r3, [r2, #0]
}
 8000d14:	bf00      	nop
 8000d16:	46bd      	mov	sp, r7
 8000d18:	bc80      	pop	{r7}
 8000d1a:	4770      	bx	lr
 8000d1c:	e000e010 	.word	0xe000e010
 8000d20:	0001193f 	.word	0x0001193f

08000d24 <SysTick_Handler>:
 ******************************************************************************
 */

extern uint32_t simulation_interval; // Обновление каждые 50 мс

void SysTick_Handler(void) {
 8000d24:	b480      	push	{r7}
 8000d26:	af00      	add	r7, sp, #0
    SysTimer_ms++;
 8000d28:	4b11      	ldr	r3, [pc, #68]	; (8000d70 <SysTick_Handler+0x4c>)
 8000d2a:	681b      	ldr	r3, [r3, #0]
 8000d2c:	3301      	adds	r3, #1
 8000d2e:	4a10      	ldr	r2, [pc, #64]	; (8000d70 <SysTick_Handler+0x4c>)
 8000d30:	6013      	str	r3, [r2, #0]

    if (Delay_counter_ms) {
 8000d32:	4b10      	ldr	r3, [pc, #64]	; (8000d74 <SysTick_Handler+0x50>)
 8000d34:	681b      	ldr	r3, [r3, #0]
 8000d36:	2b00      	cmp	r3, #0
 8000d38:	d004      	beq.n	8000d44 <SysTick_Handler+0x20>
        Delay_counter_ms--;
 8000d3a:	4b0e      	ldr	r3, [pc, #56]	; (8000d74 <SysTick_Handler+0x50>)
 8000d3c:	681b      	ldr	r3, [r3, #0]
 8000d3e:	3b01      	subs	r3, #1
 8000d40:	4a0c      	ldr	r2, [pc, #48]	; (8000d74 <SysTick_Handler+0x50>)
 8000d42:	6013      	str	r3, [r2, #0]
    }
    if (Timeout_counter_ms) {
 8000d44:	4b0c      	ldr	r3, [pc, #48]	; (8000d78 <SysTick_Handler+0x54>)
 8000d46:	681b      	ldr	r3, [r3, #0]
 8000d48:	2b00      	cmp	r3, #0
 8000d4a:	d004      	beq.n	8000d56 <SysTick_Handler+0x32>
        Timeout_counter_ms--;
 8000d4c:	4b0a      	ldr	r3, [pc, #40]	; (8000d78 <SysTick_Handler+0x54>)
 8000d4e:	681b      	ldr	r3, [r3, #0]
 8000d50:	3b01      	subs	r3, #1
 8000d52:	4a09      	ldr	r2, [pc, #36]	; (8000d78 <SysTick_Handler+0x54>)
 8000d54:	6013      	str	r3, [r2, #0]
    }
    if (simulation_interval){
 8000d56:	4b09      	ldr	r3, [pc, #36]	; (8000d7c <SysTick_Handler+0x58>)
 8000d58:	681b      	ldr	r3, [r3, #0]
 8000d5a:	2b00      	cmp	r3, #0
 8000d5c:	d004      	beq.n	8000d68 <SysTick_Handler+0x44>
    	simulation_interval--;
 8000d5e:	4b07      	ldr	r3, [pc, #28]	; (8000d7c <SysTick_Handler+0x58>)
 8000d60:	681b      	ldr	r3, [r3, #0]
 8000d62:	3b01      	subs	r3, #1
 8000d64:	4a05      	ldr	r2, [pc, #20]	; (8000d7c <SysTick_Handler+0x58>)
 8000d66:	6013      	str	r3, [r2, #0]
    }

#if defined FreeRTOS_USE
    xPortSysTickHandler();
#endif
}
 8000d68:	bf00      	nop
 8000d6a:	46bd      	mov	sp, r7
 8000d6c:	bc80      	pop	{r7}
 8000d6e:	4770      	bx	lr
 8000d70:	200000ac 	.word	0x200000ac
 8000d74:	200000b0 	.word	0x200000b0
 8000d78:	200000b4 	.word	0x200000b4
 8000d7c:	20000000 	.word	0x20000000

08000d80 <EXTI0_IRQHandler>:
     */

    NVIC_EnableIRQ(EXTI0_IRQn);  // Включим прерывание по вектору EXTI0
}

__WEAK void EXTI0_IRQHandler(void) {
 8000d80:	b480      	push	{r7}
 8000d82:	af00      	add	r7, sp, #0
    SET_BIT(EXTI->PR, EXTI_PR_PR0);  // Выйдем из прерывания
 8000d84:	4b04      	ldr	r3, [pc, #16]	; (8000d98 <EXTI0_IRQHandler+0x18>)
 8000d86:	695b      	ldr	r3, [r3, #20]
 8000d88:	4a03      	ldr	r2, [pc, #12]	; (8000d98 <EXTI0_IRQHandler+0x18>)
 8000d8a:	f043 0301 	orr.w	r3, r3, #1
 8000d8e:	6153      	str	r3, [r2, #20]
}
 8000d90:	bf00      	nop
 8000d92:	46bd      	mov	sp, r7
 8000d94:	bc80      	pop	{r7}
 8000d96:	4770      	bx	lr
 8000d98:	40010400 	.word	0x40010400

08000d9c <TIM3_IRQHandler>:
    CLEAR_BIT(TIM3->CCER, TIM_CCER_CC2P);  // OC1 active high.

    TIM3->CCR2 = 5;
}

__WEAK void TIM3_IRQHandler(void) {
 8000d9c:	b480      	push	{r7}
 8000d9e:	af00      	add	r7, sp, #0
    if (READ_BIT(TIM3->SR, TIM_SR_UIF)) {
 8000da0:	4b07      	ldr	r3, [pc, #28]	; (8000dc0 <TIM3_IRQHandler+0x24>)
 8000da2:	691b      	ldr	r3, [r3, #16]
 8000da4:	f003 0301 	and.w	r3, r3, #1
 8000da8:	2b00      	cmp	r3, #0
 8000daa:	d005      	beq.n	8000db8 <TIM3_IRQHandler+0x1c>
        CLEAR_BIT(TIM3->SR, TIM_SR_UIF);  // Сбросим флаг прерывания
 8000dac:	4b04      	ldr	r3, [pc, #16]	; (8000dc0 <TIM3_IRQHandler+0x24>)
 8000dae:	691b      	ldr	r3, [r3, #16]
 8000db0:	4a03      	ldr	r2, [pc, #12]	; (8000dc0 <TIM3_IRQHandler+0x24>)
 8000db2:	f023 0301 	bic.w	r3, r3, #1
 8000db6:	6113      	str	r3, [r2, #16]
    }
}
 8000db8:	bf00      	nop
 8000dba:	46bd      	mov	sp, r7
 8000dbc:	bc80      	pop	{r7}
 8000dbe:	4770      	bx	lr
 8000dc0:	40000400 	.word	0x40000400

08000dc4 <TIM1_UP_IRQHandler>:
    CLEAR_BIT(TIM1->CCER, TIM_CCER_CC2P);  // OC1 active high.

    TIM1->CCR2 = 250;
}

__WEAK void TIM1_UP_IRQHandler(void) {
 8000dc4:	b480      	push	{r7}
 8000dc6:	af00      	add	r7, sp, #0
    if (READ_BIT(TIM1->SR, TIM_SR_UIF)) {
 8000dc8:	4b07      	ldr	r3, [pc, #28]	; (8000de8 <TIM1_UP_IRQHandler+0x24>)
 8000dca:	691b      	ldr	r3, [r3, #16]
 8000dcc:	f003 0301 	and.w	r3, r3, #1
 8000dd0:	2b00      	cmp	r3, #0
 8000dd2:	d005      	beq.n	8000de0 <TIM1_UP_IRQHandler+0x1c>
        CLEAR_BIT(TIM1->SR, TIM_SR_UIF);  // Сбросим флаг прерывания
 8000dd4:	4b04      	ldr	r3, [pc, #16]	; (8000de8 <TIM1_UP_IRQHandler+0x24>)
 8000dd6:	691b      	ldr	r3, [r3, #16]
 8000dd8:	4a03      	ldr	r2, [pc, #12]	; (8000de8 <TIM1_UP_IRQHandler+0x24>)
 8000dda:	f023 0301 	bic.w	r3, r3, #1
 8000dde:	6113      	str	r3, [r2, #16]
    }
}
 8000de0:	bf00      	nop
 8000de2:	46bd      	mov	sp, r7
 8000de4:	bc80      	pop	{r7}
 8000de6:	4770      	bx	lr
 8000de8:	40012c00 	.word	0x40012c00

08000dec <ADC1_2_IRQHandler>:
    // NVIC_EnableIRQ(ADC1_IRQn); //Разрешить прерывания по АЦП

    // SET_BIT(ADC1->CR2, ADC_CR2_SWSTART); //Начать преобразование. Не нужно запускать, если Continuous conversion mode(непрерывные преобразования) включен
}

__WEAK void ADC1_2_IRQHandler(void) {
 8000dec:	b480      	push	{r7}
 8000dee:	af00      	add	r7, sp, #0
    /*This bit is set by hardware at the end of a group channel conversion (regular or injected). It is
     * cleared by software or by reading the ADC_DR.
     * 0: Conversion is not complete
     * 1: Conversion complete*/
    if (READ_BIT(ADC1->SR, ADC_SR_EOC)) {
 8000df0:	4b05      	ldr	r3, [pc, #20]	; (8000e08 <ADC1_2_IRQHandler+0x1c>)
 8000df2:	681b      	ldr	r3, [r3, #0]
 8000df4:	f003 0302 	and.w	r3, r3, #2
 8000df8:	2b00      	cmp	r3, #0
 8000dfa:	d001      	beq.n	8000e00 <ADC1_2_IRQHandler+0x14>
        ADC1->DR;  // Читаем канал, чтоб сбросить флаг
 8000dfc:	4b02      	ldr	r3, [pc, #8]	; (8000e08 <ADC1_2_IRQHandler+0x1c>)
 8000dfe:	6cdb      	ldr	r3, [r3, #76]	; 0x4c
    }
}
 8000e00:	bf00      	nop
 8000e02:	46bd      	mov	sp, r7
 8000e04:	bc80      	pop	{r7}
 8000e06:	4770      	bx	lr
 8000e08:	40012400 	.word	0x40012400

08000e0c <DMA1_Channel1_IRQHandler>:
__WEAK void DMA1_Channel1_IRQHandler(void) {
 8000e0c:	b480      	push	{r7}
 8000e0e:	af00      	add	r7, sp, #0
    if (READ_BIT(DMA1->ISR, DMA_ISR_TCIF1)) {
 8000e10:	4b0e      	ldr	r3, [pc, #56]	; (8000e4c <DMA1_Channel1_IRQHandler+0x40>)
 8000e12:	681b      	ldr	r3, [r3, #0]
 8000e14:	f003 0302 	and.w	r3, r3, #2
 8000e18:	2b00      	cmp	r3, #0
 8000e1a:	d006      	beq.n	8000e2a <DMA1_Channel1_IRQHandler+0x1e>
        SET_BIT(DMA1->IFCR, DMA_IFCR_CGIF1);  // Сбросим глобальный флаг.
 8000e1c:	4b0b      	ldr	r3, [pc, #44]	; (8000e4c <DMA1_Channel1_IRQHandler+0x40>)
 8000e1e:	685b      	ldr	r3, [r3, #4]
 8000e20:	4a0a      	ldr	r2, [pc, #40]	; (8000e4c <DMA1_Channel1_IRQHandler+0x40>)
 8000e22:	f043 0301 	orr.w	r3, r3, #1
 8000e26:	6053      	str	r3, [r2, #4]

    } else if (READ_BIT(DMA1->ISR, DMA_ISR_TEIF1)) {
        /*Здесь можно сделать какой-то обработчик ошибок*/
        SET_BIT(DMA1->IFCR, DMA_IFCR_CGIF1);  // Сбросим глобальный флаг.
    }
}
 8000e28:	e00b      	b.n	8000e42 <DMA1_Channel1_IRQHandler+0x36>
    } else if (READ_BIT(DMA1->ISR, DMA_ISR_TEIF1)) {
 8000e2a:	4b08      	ldr	r3, [pc, #32]	; (8000e4c <DMA1_Channel1_IRQHandler+0x40>)
 8000e2c:	681b      	ldr	r3, [r3, #0]
 8000e2e:	f003 0308 	and.w	r3, r3, #8
 8000e32:	2b00      	cmp	r3, #0
 8000e34:	d005      	beq.n	8000e42 <DMA1_Channel1_IRQHandler+0x36>
        SET_BIT(DMA1->IFCR, DMA_IFCR_CGIF1);  // Сбросим глобальный флаг.
 8000e36:	4b05      	ldr	r3, [pc, #20]	; (8000e4c <DMA1_Channel1_IRQHandler+0x40>)
 8000e38:	685b      	ldr	r3, [r3, #4]
 8000e3a:	4a04      	ldr	r2, [pc, #16]	; (8000e4c <DMA1_Channel1_IRQHandler+0x40>)
 8000e3c:	f043 0301 	orr.w	r3, r3, #1
 8000e40:	6053      	str	r3, [r2, #4]
}
 8000e42:	bf00      	nop
 8000e44:	46bd      	mov	sp, r7
 8000e46:	bc80      	pop	{r7}
 8000e48:	4770      	bx	lr
 8000e4a:	bf00      	nop
 8000e4c:	40020000 	.word	0x40020000

08000e50 <CMSIS_USART1_Init>:
 ******************************************************************************
 *  @breif Настройка USART1. Параметры 9600 8 N 1
 ******************************************************************************
 */

void CMSIS_USART1_Init(void) {
 8000e50:	b580      	push	{r7, lr}
 8000e52:	af00      	add	r7, sp, #0
    SET_BIT(RCC->APB2ENR, RCC_APB2ENR_IOPAEN);  // Включение тактирование порта А
 8000e54:	4b50      	ldr	r3, [pc, #320]	; (8000f98 <CMSIS_USART1_Init+0x148>)
 8000e56:	699b      	ldr	r3, [r3, #24]
 8000e58:	4a4f      	ldr	r2, [pc, #316]	; (8000f98 <CMSIS_USART1_Init+0x148>)
 8000e5a:	f043 0304 	orr.w	r3, r3, #4
 8000e5e:	6193      	str	r3, [r2, #24]
    SET_BIT(RCC->APB2ENR, RCC_APB2ENR_AFIOEN);  // Включение альтернативных функций
 8000e60:	4b4d      	ldr	r3, [pc, #308]	; (8000f98 <CMSIS_USART1_Init+0x148>)
 8000e62:	699b      	ldr	r3, [r3, #24]
 8000e64:	4a4c      	ldr	r2, [pc, #304]	; (8000f98 <CMSIS_USART1_Init+0x148>)
 8000e66:	f043 0301 	orr.w	r3, r3, #1
 8000e6a:	6193      	str	r3, [r2, #24]

    // Для конфигурирование ножек UART для Full Duplex нужно использовать Alternate function push-pull(См. п.п. 9.1.11 GPIO configurations for device peripherals стр.111 Reference Manual)
    // Tx - Alternative Function output Push-pull(Maximum output speed 50 MHz)
    MODIFY_REG(GPIOA->CRH, GPIO_CRH_CNF9_Msk, 0b10 << GPIO_CRH_CNF9_Pos);
 8000e6c:	4b4b      	ldr	r3, [pc, #300]	; (8000f9c <CMSIS_USART1_Init+0x14c>)
 8000e6e:	685b      	ldr	r3, [r3, #4]
 8000e70:	f023 03c0 	bic.w	r3, r3, #192	; 0xc0
 8000e74:	4a49      	ldr	r2, [pc, #292]	; (8000f9c <CMSIS_USART1_Init+0x14c>)
 8000e76:	f043 0380 	orr.w	r3, r3, #128	; 0x80
 8000e7a:	6053      	str	r3, [r2, #4]
    MODIFY_REG(GPIOA->CRH, GPIO_CRH_MODE9_Msk, 0b11 << GPIO_CRH_MODE9_Pos);
 8000e7c:	4b47      	ldr	r3, [pc, #284]	; (8000f9c <CMSIS_USART1_Init+0x14c>)
 8000e7e:	685b      	ldr	r3, [r3, #4]
 8000e80:	4a46      	ldr	r2, [pc, #280]	; (8000f9c <CMSIS_USART1_Init+0x14c>)
 8000e82:	f043 0330 	orr.w	r3, r3, #48	; 0x30
 8000e86:	6053      	str	r3, [r2, #4]
    // Rx - Input floating
    MODIFY_REG(GPIOA->CRH, GPIO_CRH_CNF10_Msk, 0b1 << GPIO_CRH_CNF10_Pos);
 8000e88:	4b44      	ldr	r3, [pc, #272]	; (8000f9c <CMSIS_USART1_Init+0x14c>)
 8000e8a:	685b      	ldr	r3, [r3, #4]
 8000e8c:	f423 6340 	bic.w	r3, r3, #3072	; 0xc00
 8000e90:	4a42      	ldr	r2, [pc, #264]	; (8000f9c <CMSIS_USART1_Init+0x14c>)
 8000e92:	f443 6380 	orr.w	r3, r3, #1024	; 0x400
 8000e96:	6053      	str	r3, [r2, #4]
    MODIFY_REG(GPIOA->CRH, GPIO_CRH_MODE10_Msk, 0b00 << GPIO_CRH_MODE10_Pos);
 8000e98:	4b40      	ldr	r3, [pc, #256]	; (8000f9c <CMSIS_USART1_Init+0x14c>)
 8000e9a:	685b      	ldr	r3, [r3, #4]
 8000e9c:	4a3f      	ldr	r2, [pc, #252]	; (8000f9c <CMSIS_USART1_Init+0x14c>)
 8000e9e:	f423 7340 	bic.w	r3, r3, #768	; 0x300
 8000ea2:	6053      	str	r3, [r2, #4]

    // Запустим тактирование USART1
    SET_BIT(RCC->APB2ENR, RCC_APB2ENR_USART1EN);
 8000ea4:	4b3c      	ldr	r3, [pc, #240]	; (8000f98 <CMSIS_USART1_Init+0x148>)
 8000ea6:	699b      	ldr	r3, [r3, #24]
 8000ea8:	4a3b      	ldr	r2, [pc, #236]	; (8000f98 <CMSIS_USART1_Init+0x148>)
 8000eaa:	f443 4380 	orr.w	r3, r3, #16384	; 0x4000
 8000eae:	6193      	str	r3, [r2, #24]
    //9600
//    MODIFY_REG(USART1->BRR, USART_BRR_DIV_Mantissa_Msk, 0x1D4 << USART_BRR_DIV_Mantissa_Pos);
//    MODIFY_REG(USART1->BRR, USART_BRR_DIV_Fraction_Msk, 0xC << USART_BRR_DIV_Fraction_Pos);

    //115200
    MODIFY_REG(USART1->BRR, USART_BRR_DIV_Mantissa_Msk, 0x27 << USART_BRR_DIV_Mantissa_Pos);
 8000eb0:	4b3b      	ldr	r3, [pc, #236]	; (8000fa0 <CMSIS_USART1_Init+0x150>)
 8000eb2:	689b      	ldr	r3, [r3, #8]
 8000eb4:	f423 437f 	bic.w	r3, r3, #65280	; 0xff00
 8000eb8:	f023 03f0 	bic.w	r3, r3, #240	; 0xf0
 8000ebc:	4a38      	ldr	r2, [pc, #224]	; (8000fa0 <CMSIS_USART1_Init+0x150>)
 8000ebe:	f443 731c 	orr.w	r3, r3, #624	; 0x270
 8000ec2:	6093      	str	r3, [r2, #8]
    MODIFY_REG(USART1->BRR, USART_BRR_DIV_Fraction_Msk, 0x1 << USART_BRR_DIV_Fraction_Pos);
 8000ec4:	4b36      	ldr	r3, [pc, #216]	; (8000fa0 <CMSIS_USART1_Init+0x150>)
 8000ec6:	689b      	ldr	r3, [r3, #8]
 8000ec8:	f023 030f 	bic.w	r3, r3, #15
 8000ecc:	4a34      	ldr	r2, [pc, #208]	; (8000fa0 <CMSIS_USART1_Init+0x150>)
 8000ece:	f043 0301 	orr.w	r3, r3, #1
 8000ed2:	6093      	str	r3, [r2, #8]

    // 27.6.4 Control register 1(USART_CR1)(см. стр 821 Reference Manual)
    SET_BIT(USART1->CR1, USART_CR1_UE);      // USART enable
 8000ed4:	4b32      	ldr	r3, [pc, #200]	; (8000fa0 <CMSIS_USART1_Init+0x150>)
 8000ed6:	68db      	ldr	r3, [r3, #12]
 8000ed8:	4a31      	ldr	r2, [pc, #196]	; (8000fa0 <CMSIS_USART1_Init+0x150>)
 8000eda:	f443 5300 	orr.w	r3, r3, #8192	; 0x2000
 8000ede:	60d3      	str	r3, [r2, #12]
    CLEAR_BIT(USART1->CR1, USART_CR1_M);     // Word lenght 1 Start bit, 8 Data bits, n Stop bit
 8000ee0:	4b2f      	ldr	r3, [pc, #188]	; (8000fa0 <CMSIS_USART1_Init+0x150>)
 8000ee2:	68db      	ldr	r3, [r3, #12]
 8000ee4:	4a2e      	ldr	r2, [pc, #184]	; (8000fa0 <CMSIS_USART1_Init+0x150>)
 8000ee6:	f423 5380 	bic.w	r3, r3, #4096	; 0x1000
 8000eea:	60d3      	str	r3, [r2, #12]
    CLEAR_BIT(USART1->CR1, USART_CR1_WAKE);  // Wake up idle Line
 8000eec:	4b2c      	ldr	r3, [pc, #176]	; (8000fa0 <CMSIS_USART1_Init+0x150>)
 8000eee:	68db      	ldr	r3, [r3, #12]
 8000ef0:	4a2b      	ldr	r2, [pc, #172]	; (8000fa0 <CMSIS_USART1_Init+0x150>)
 8000ef2:	f423 6300 	bic.w	r3, r3, #2048	; 0x800
 8000ef6:	60d3      	str	r3, [r2, #12]
    CLEAR_BIT(USART1->CR1, USART_CR1_PCE);   // Partity control disabled
 8000ef8:	4b29      	ldr	r3, [pc, #164]	; (8000fa0 <CMSIS_USART1_Init+0x150>)
 8000efa:	68db      	ldr	r3, [r3, #12]
 8000efc:	4a28      	ldr	r2, [pc, #160]	; (8000fa0 <CMSIS_USART1_Init+0x150>)
 8000efe:	f423 6380 	bic.w	r3, r3, #1024	; 0x400
 8000f02:	60d3      	str	r3, [r2, #12]
    // настройка прерываний
    CLEAR_BIT(USART1->CR1, USART_CR1_PEIE);   // partity error interrupt disabled
 8000f04:	4b26      	ldr	r3, [pc, #152]	; (8000fa0 <CMSIS_USART1_Init+0x150>)
 8000f06:	68db      	ldr	r3, [r3, #12]
 8000f08:	4a25      	ldr	r2, [pc, #148]	; (8000fa0 <CMSIS_USART1_Init+0x150>)
 8000f0a:	f423 7380 	bic.w	r3, r3, #256	; 0x100
 8000f0e:	60d3      	str	r3, [r2, #12]
    CLEAR_BIT(USART1->CR1, USART_CR1_TXEIE);  // TXE interrupt is inhibited
 8000f10:	4b23      	ldr	r3, [pc, #140]	; (8000fa0 <CMSIS_USART1_Init+0x150>)
 8000f12:	68db      	ldr	r3, [r3, #12]
 8000f14:	4a22      	ldr	r2, [pc, #136]	; (8000fa0 <CMSIS_USART1_Init+0x150>)
 8000f16:	f023 0380 	bic.w	r3, r3, #128	; 0x80
 8000f1a:	60d3      	str	r3, [r2, #12]
    CLEAR_BIT(USART1->CR1, USART_CR1_TCIE);   // Transmission complete interrupt disabled
 8000f1c:	4b20      	ldr	r3, [pc, #128]	; (8000fa0 <CMSIS_USART1_Init+0x150>)
 8000f1e:	68db      	ldr	r3, [r3, #12]
 8000f20:	4a1f      	ldr	r2, [pc, #124]	; (8000fa0 <CMSIS_USART1_Init+0x150>)
 8000f22:	f023 0340 	bic.w	r3, r3, #64	; 0x40
 8000f26:	60d3      	str	r3, [r2, #12]
    SET_BIT(USART1->CR1, USART_CR1_RXNEIE);   // Прерывание по приему данных включено
 8000f28:	4b1d      	ldr	r3, [pc, #116]	; (8000fa0 <CMSIS_USART1_Init+0x150>)
 8000f2a:	68db      	ldr	r3, [r3, #12]
 8000f2c:	4a1c      	ldr	r2, [pc, #112]	; (8000fa0 <CMSIS_USART1_Init+0x150>)
 8000f2e:	f043 0320 	orr.w	r3, r3, #32
 8000f32:	60d3      	str	r3, [r2, #12]
    SET_BIT(USART1->CR1, USART_CR1_IDLEIE);   // Прерывание по флагу IDLE включено
 8000f34:	4b1a      	ldr	r3, [pc, #104]	; (8000fa0 <CMSIS_USART1_Init+0x150>)
 8000f36:	68db      	ldr	r3, [r3, #12]
 8000f38:	4a19      	ldr	r2, [pc, #100]	; (8000fa0 <CMSIS_USART1_Init+0x150>)
 8000f3a:	f043 0310 	orr.w	r3, r3, #16
 8000f3e:	60d3      	str	r3, [r2, #12]
    SET_BIT(USART1->CR1, USART_CR1_TE);       // Transmitter is enabled
 8000f40:	4b17      	ldr	r3, [pc, #92]	; (8000fa0 <CMSIS_USART1_Init+0x150>)
 8000f42:	68db      	ldr	r3, [r3, #12]
 8000f44:	4a16      	ldr	r2, [pc, #88]	; (8000fa0 <CMSIS_USART1_Init+0x150>)
 8000f46:	f043 0308 	orr.w	r3, r3, #8
 8000f4a:	60d3      	str	r3, [r2, #12]
    SET_BIT(USART1->CR1, USART_CR1_RE);       // Receiver is enabled and begins searching for a start bit
 8000f4c:	4b14      	ldr	r3, [pc, #80]	; (8000fa0 <CMSIS_USART1_Init+0x150>)
 8000f4e:	68db      	ldr	r3, [r3, #12]
 8000f50:	4a13      	ldr	r2, [pc, #76]	; (8000fa0 <CMSIS_USART1_Init+0x150>)
 8000f52:	f043 0304 	orr.w	r3, r3, #4
 8000f56:	60d3      	str	r3, [r2, #12]
    CLEAR_BIT(USART1->CR1, USART_CR1_RWU);
 8000f58:	4b11      	ldr	r3, [pc, #68]	; (8000fa0 <CMSIS_USART1_Init+0x150>)
 8000f5a:	68db      	ldr	r3, [r3, #12]
 8000f5c:	4a10      	ldr	r2, [pc, #64]	; (8000fa0 <CMSIS_USART1_Init+0x150>)
 8000f5e:	f023 0302 	bic.w	r3, r3, #2
 8000f62:	60d3      	str	r3, [r2, #12]
    CLEAR_BIT(USART1->CR1, USART_CR1_SBK);
 8000f64:	4b0e      	ldr	r3, [pc, #56]	; (8000fa0 <CMSIS_USART1_Init+0x150>)
 8000f66:	68db      	ldr	r3, [r3, #12]
 8000f68:	4a0d      	ldr	r2, [pc, #52]	; (8000fa0 <CMSIS_USART1_Init+0x150>)
 8000f6a:	f023 0301 	bic.w	r3, r3, #1
 8000f6e:	60d3      	str	r3, [r2, #12]

    // Остальную настройку, не касающуюся стандартного USART, мы пока трогать не будем, но на всякий случай обнулим
    USART1->CR2 = 0;
 8000f70:	4b0b      	ldr	r3, [pc, #44]	; (8000fa0 <CMSIS_USART1_Init+0x150>)
 8000f72:	2200      	movs	r2, #0
 8000f74:	611a      	str	r2, [r3, #16]
    CLEAR_BIT(USART1->CR2, USART_CR2_STOP);  // 1 стоп бит.
 8000f76:	4b0a      	ldr	r3, [pc, #40]	; (8000fa0 <CMSIS_USART1_Init+0x150>)
 8000f78:	691b      	ldr	r3, [r3, #16]
 8000f7a:	4a09      	ldr	r2, [pc, #36]	; (8000fa0 <CMSIS_USART1_Init+0x150>)
 8000f7c:	f423 5340 	bic.w	r3, r3, #12288	; 0x3000
 8000f80:	6113      	str	r3, [r2, #16]
    USART1->CR3 = 0;
 8000f82:	4b07      	ldr	r3, [pc, #28]	; (8000fa0 <CMSIS_USART1_Init+0x150>)
 8000f84:	2200      	movs	r2, #0
 8000f86:	615a      	str	r2, [r3, #20]
    USART1->GTPR = 0;
 8000f88:	4b05      	ldr	r3, [pc, #20]	; (8000fa0 <CMSIS_USART1_Init+0x150>)
 8000f8a:	2200      	movs	r2, #0
 8000f8c:	619a      	str	r2, [r3, #24]

    NVIC_EnableIRQ(USART1_IRQn);  // Включим прерывания по USART1
 8000f8e:	2025      	movs	r0, #37	; 0x25
 8000f90:	f7ff fdb6 	bl	8000b00 <__NVIC_EnableIRQ>
}
 8000f94:	bf00      	nop
 8000f96:	bd80      	pop	{r7, pc}
 8000f98:	40021000 	.word	0x40021000
 8000f9c:	40010800 	.word	0x40010800
 8000fa0:	40013800 	.word	0x40013800

08000fa4 <USART2_IRQHandler>:
        husart1.rx_len = husart1.rx_counter;  // Узнаем, сколько байт получили
        husart1.rx_counter = 0;               // сбросим счетчик приходящих данных
    }
}

__WEAK void USART2_IRQHandler(void) {
 8000fa4:	b480      	push	{r7}
 8000fa6:	af00      	add	r7, sp, #0
    if (READ_BIT(USART2->SR, USART_SR_RXNE)) {
 8000fa8:	4b13      	ldr	r3, [pc, #76]	; (8000ff8 <USART2_IRQHandler+0x54>)
 8000faa:	681b      	ldr	r3, [r3, #0]
 8000fac:	f003 0320 	and.w	r3, r3, #32
 8000fb0:	2b00      	cmp	r3, #0
 8000fb2:	d00e      	beq.n	8000fd2 <USART2_IRQHandler+0x2e>
        // Если пришли данные по USART
        husart2.rx_buffer[husart2.rx_counter] = USART2->DR;  // Считаем данные в соответствующую ячейку в rx_buffer
 8000fb4:	4b10      	ldr	r3, [pc, #64]	; (8000ff8 <USART2_IRQHandler+0x54>)
 8000fb6:	685a      	ldr	r2, [r3, #4]
 8000fb8:	4b10      	ldr	r3, [pc, #64]	; (8000ffc <USART2_IRQHandler+0x58>)
 8000fba:	8d1b      	ldrh	r3, [r3, #40]	; 0x28
 8000fbc:	4619      	mov	r1, r3
 8000fbe:	b2d2      	uxtb	r2, r2
 8000fc0:	4b0e      	ldr	r3, [pc, #56]	; (8000ffc <USART2_IRQHandler+0x58>)
 8000fc2:	440b      	add	r3, r1
 8000fc4:	751a      	strb	r2, [r3, #20]
        husart2.rx_counter++;                                // Увеличим счетчик принятых байт на 1
 8000fc6:	4b0d      	ldr	r3, [pc, #52]	; (8000ffc <USART2_IRQHandler+0x58>)
 8000fc8:	8d1b      	ldrh	r3, [r3, #40]	; 0x28
 8000fca:	3301      	adds	r3, #1
 8000fcc:	b29a      	uxth	r2, r3
 8000fce:	4b0b      	ldr	r3, [pc, #44]	; (8000ffc <USART2_IRQHandler+0x58>)
 8000fd0:	851a      	strh	r2, [r3, #40]	; 0x28
    }
    if (READ_BIT(USART2->SR, USART_SR_IDLE)) {
 8000fd2:	4b09      	ldr	r3, [pc, #36]	; (8000ff8 <USART2_IRQHandler+0x54>)
 8000fd4:	681b      	ldr	r3, [r3, #0]
 8000fd6:	f003 0310 	and.w	r3, r3, #16
 8000fda:	2b00      	cmp	r3, #0
 8000fdc:	d008      	beq.n	8000ff0 <USART2_IRQHandler+0x4c>
        // Если прилетел флаг IDLE
        USART2->DR;                           // Сбросим флаг IDLE
 8000fde:	4b06      	ldr	r3, [pc, #24]	; (8000ff8 <USART2_IRQHandler+0x54>)
 8000fe0:	685b      	ldr	r3, [r3, #4]
        husart2.rx_len = husart2.rx_counter;  // Узнаем, сколько байт получили
 8000fe2:	4b06      	ldr	r3, [pc, #24]	; (8000ffc <USART2_IRQHandler+0x58>)
 8000fe4:	8d1a      	ldrh	r2, [r3, #40]	; 0x28
 8000fe6:	4b05      	ldr	r3, [pc, #20]	; (8000ffc <USART2_IRQHandler+0x58>)
 8000fe8:	855a      	strh	r2, [r3, #42]	; 0x2a
        husart2.rx_counter = 0;               // сбросим счетчик приходящих данных
 8000fea:	4b04      	ldr	r3, [pc, #16]	; (8000ffc <USART2_IRQHandler+0x58>)
 8000fec:	2200      	movs	r2, #0
 8000fee:	851a      	strh	r2, [r3, #40]	; 0x28
    }
}
 8000ff0:	bf00      	nop
 8000ff2:	46bd      	mov	sp, r7
 8000ff4:	bc80      	pop	{r7}
 8000ff6:	4770      	bx	lr
 8000ff8:	40004400 	.word	0x40004400
 8000ffc:	200000f0 	.word	0x200000f0

08001000 <CMSIS_USART_Transmit>:
 *  @param  *data - данные, которые будем отправлять
 *  @param  Size - сколько байт требуется передать
 ******************************************************************************
 */

bool CMSIS_USART_Transmit(USART_TypeDef* USART, uint8_t* data, uint16_t Size, uint32_t Timeout_ms) {
 8001000:	b480      	push	{r7}
 8001002:	b087      	sub	sp, #28
 8001004:	af00      	add	r7, sp, #0
 8001006:	60f8      	str	r0, [r7, #12]
 8001008:	60b9      	str	r1, [r7, #8]
 800100a:	603b      	str	r3, [r7, #0]
 800100c:	4613      	mov	r3, r2
 800100e:	80fb      	strh	r3, [r7, #6]
    for (uint16_t i = 0; i < Size; i++) {
 8001010:	2300      	movs	r3, #0
 8001012:	82fb      	strh	r3, [r7, #22]
 8001014:	e019      	b.n	800104a <CMSIS_USART_Transmit+0x4a>
        Timeout_counter_ms = Timeout_ms;
 8001016:	4a1a      	ldr	r2, [pc, #104]	; (8001080 <CMSIS_USART_Transmit+0x80>)
 8001018:	683b      	ldr	r3, [r7, #0]
 800101a:	6013      	str	r3, [r2, #0]
        // Ждем, пока линия не освободится
        while (READ_BIT(USART->SR, USART_SR_TXE) == 0) {
 800101c:	e005      	b.n	800102a <CMSIS_USART_Transmit+0x2a>
            if (!Timeout_counter_ms) {
 800101e:	4b18      	ldr	r3, [pc, #96]	; (8001080 <CMSIS_USART_Transmit+0x80>)
 8001020:	681b      	ldr	r3, [r3, #0]
 8001022:	2b00      	cmp	r3, #0
 8001024:	d101      	bne.n	800102a <CMSIS_USART_Transmit+0x2a>
                return false;
 8001026:	2300      	movs	r3, #0
 8001028:	e024      	b.n	8001074 <CMSIS_USART_Transmit+0x74>
        while (READ_BIT(USART->SR, USART_SR_TXE) == 0) {
 800102a:	68fb      	ldr	r3, [r7, #12]
 800102c:	681b      	ldr	r3, [r3, #0]
 800102e:	f003 0380 	and.w	r3, r3, #128	; 0x80
 8001032:	2b00      	cmp	r3, #0
 8001034:	d0f3      	beq.n	800101e <CMSIS_USART_Transmit+0x1e>
            }
        }
        USART->DR = *data++;  // Кидаем данные
 8001036:	68bb      	ldr	r3, [r7, #8]
 8001038:	1c5a      	adds	r2, r3, #1
 800103a:	60ba      	str	r2, [r7, #8]
 800103c:	781b      	ldrb	r3, [r3, #0]
 800103e:	461a      	mov	r2, r3
 8001040:	68fb      	ldr	r3, [r7, #12]
 8001042:	605a      	str	r2, [r3, #4]
    for (uint16_t i = 0; i < Size; i++) {
 8001044:	8afb      	ldrh	r3, [r7, #22]
 8001046:	3301      	adds	r3, #1
 8001048:	82fb      	strh	r3, [r7, #22]
 800104a:	8afa      	ldrh	r2, [r7, #22]
 800104c:	88fb      	ldrh	r3, [r7, #6]
 800104e:	429a      	cmp	r2, r3
 8001050:	d3e1      	bcc.n	8001016 <CMSIS_USART_Transmit+0x16>
    }
    Timeout_counter_ms = Timeout_ms;
 8001052:	4a0b      	ldr	r2, [pc, #44]	; (8001080 <CMSIS_USART_Transmit+0x80>)
 8001054:	683b      	ldr	r3, [r7, #0]
 8001056:	6013      	str	r3, [r2, #0]
    while (READ_BIT(USART->SR, USART_SR_TC) == 0) {  // Ожидаем отправки данных
 8001058:	e005      	b.n	8001066 <CMSIS_USART_Transmit+0x66>
        if (!Timeout_counter_ms) {
 800105a:	4b09      	ldr	r3, [pc, #36]	; (8001080 <CMSIS_USART_Transmit+0x80>)
 800105c:	681b      	ldr	r3, [r3, #0]
 800105e:	2b00      	cmp	r3, #0
 8001060:	d101      	bne.n	8001066 <CMSIS_USART_Transmit+0x66>
            return false;
 8001062:	2300      	movs	r3, #0
 8001064:	e006      	b.n	8001074 <CMSIS_USART_Transmit+0x74>
    while (READ_BIT(USART->SR, USART_SR_TC) == 0) {  // Ожидаем отправки данных
 8001066:	68fb      	ldr	r3, [r7, #12]
 8001068:	681b      	ldr	r3, [r3, #0]
 800106a:	f003 0340 	and.w	r3, r3, #64	; 0x40
 800106e:	2b00      	cmp	r3, #0
 8001070:	d0f3      	beq.n	800105a <CMSIS_USART_Transmit+0x5a>
        }
    };
    return true;
 8001072:	2301      	movs	r3, #1
}
 8001074:	4618      	mov	r0, r3
 8001076:	371c      	adds	r7, #28
 8001078:	46bd      	mov	sp, r7
 800107a:	bc80      	pop	{r7}
 800107c:	4770      	bx	lr
 800107e:	bf00      	nop
 8001080:	200000b4 	.word	0x200000b4

08001084 <_getpid>:
void initialise_monitor_handles()
{
}

int _getpid(void)
{
 8001084:	b480      	push	{r7}
 8001086:	af00      	add	r7, sp, #0
	return 1;
 8001088:	2301      	movs	r3, #1
}
 800108a:	4618      	mov	r0, r3
 800108c:	46bd      	mov	sp, r7
 800108e:	bc80      	pop	{r7}
 8001090:	4770      	bx	lr

08001092 <_kill>:

int _kill(int pid, int sig)
{
 8001092:	b580      	push	{r7, lr}
 8001094:	b082      	sub	sp, #8
 8001096:	af00      	add	r7, sp, #0
 8001098:	6078      	str	r0, [r7, #4]
 800109a:	6039      	str	r1, [r7, #0]
	errno = EINVAL;
 800109c:	f000 fa70 	bl	8001580 <__errno>
 80010a0:	4603      	mov	r3, r0
 80010a2:	2216      	movs	r2, #22
 80010a4:	601a      	str	r2, [r3, #0]
	return -1;
 80010a6:	f04f 33ff 	mov.w	r3, #4294967295
}
 80010aa:	4618      	mov	r0, r3
 80010ac:	3708      	adds	r7, #8
 80010ae:	46bd      	mov	sp, r7
 80010b0:	bd80      	pop	{r7, pc}

080010b2 <_exit>:

void _exit (int status)
{
 80010b2:	b580      	push	{r7, lr}
 80010b4:	b082      	sub	sp, #8
 80010b6:	af00      	add	r7, sp, #0
 80010b8:	6078      	str	r0, [r7, #4]
	_kill(status, -1);
 80010ba:	f04f 31ff 	mov.w	r1, #4294967295
 80010be:	6878      	ldr	r0, [r7, #4]
 80010c0:	f7ff ffe7 	bl	8001092 <_kill>
	while (1) {}		/* Make sure we hang here */
 80010c4:	e7fe      	b.n	80010c4 <_exit+0x12>

080010c6 <_read>:
}

__attribute__((weak)) int _read(int file, char *ptr, int len)
{
 80010c6:	b580      	push	{r7, lr}
 80010c8:	b086      	sub	sp, #24
 80010ca:	af00      	add	r7, sp, #0
 80010cc:	60f8      	str	r0, [r7, #12]
 80010ce:	60b9      	str	r1, [r7, #8]
 80010d0:	607a      	str	r2, [r7, #4]
	int DataIdx;

	for (DataIdx = 0; DataIdx < len; DataIdx++)
 80010d2:	2300      	movs	r3, #0
 80010d4:	617b      	str	r3, [r7, #20]
 80010d6:	e00a      	b.n	80010ee <_read+0x28>
	{
		*ptr++ = __io_getchar();
 80010d8:	f3af 8000 	nop.w
 80010dc:	4601      	mov	r1, r0
 80010de:	68bb      	ldr	r3, [r7, #8]
 80010e0:	1c5a      	adds	r2, r3, #1
 80010e2:	60ba      	str	r2, [r7, #8]
 80010e4:	b2ca      	uxtb	r2, r1
 80010e6:	701a      	strb	r2, [r3, #0]
	for (DataIdx = 0; DataIdx < len; DataIdx++)
 80010e8:	697b      	ldr	r3, [r7, #20]
 80010ea:	3301      	adds	r3, #1
 80010ec:	617b      	str	r3, [r7, #20]
 80010ee:	697a      	ldr	r2, [r7, #20]
 80010f0:	687b      	ldr	r3, [r7, #4]
 80010f2:	429a      	cmp	r2, r3
 80010f4:	dbf0      	blt.n	80010d8 <_read+0x12>
	}

return len;
 80010f6:	687b      	ldr	r3, [r7, #4]
}
 80010f8:	4618      	mov	r0, r3
 80010fa:	3718      	adds	r7, #24
 80010fc:	46bd      	mov	sp, r7
 80010fe:	bd80      	pop	{r7, pc}

08001100 <_write>:

__attribute__((weak)) int _write(int file, char *ptr, int len)
{
 8001100:	b580      	push	{r7, lr}
 8001102:	b086      	sub	sp, #24
 8001104:	af00      	add	r7, sp, #0
 8001106:	60f8      	str	r0, [r7, #12]
 8001108:	60b9      	str	r1, [r7, #8]
 800110a:	607a      	str	r2, [r7, #4]
	int DataIdx;

	for (DataIdx = 0; DataIdx < len; DataIdx++)
 800110c:	2300      	movs	r3, #0
 800110e:	617b      	str	r3, [r7, #20]
 8001110:	e009      	b.n	8001126 <_write+0x26>
	{
		__io_putchar(*ptr++);
 8001112:	68bb      	ldr	r3, [r7, #8]
 8001114:	1c5a      	adds	r2, r3, #1
 8001116:	60ba      	str	r2, [r7, #8]
 8001118:	781b      	ldrb	r3, [r3, #0]
 800111a:	4618      	mov	r0, r3
 800111c:	f3af 8000 	nop.w
	for (DataIdx = 0; DataIdx < len; DataIdx++)
 8001120:	697b      	ldr	r3, [r7, #20]
 8001122:	3301      	adds	r3, #1
 8001124:	617b      	str	r3, [r7, #20]
 8001126:	697a      	ldr	r2, [r7, #20]
 8001128:	687b      	ldr	r3, [r7, #4]
 800112a:	429a      	cmp	r2, r3
 800112c:	dbf1      	blt.n	8001112 <_write+0x12>
	}
	return len;
 800112e:	687b      	ldr	r3, [r7, #4]
}
 8001130:	4618      	mov	r0, r3
 8001132:	3718      	adds	r7, #24
 8001134:	46bd      	mov	sp, r7
 8001136:	bd80      	pop	{r7, pc}

08001138 <_close>:

int _close(int file)
{
 8001138:	b480      	push	{r7}
 800113a:	b083      	sub	sp, #12
 800113c:	af00      	add	r7, sp, #0
 800113e:	6078      	str	r0, [r7, #4]
	return -1;
 8001140:	f04f 33ff 	mov.w	r3, #4294967295
}
 8001144:	4618      	mov	r0, r3
 8001146:	370c      	adds	r7, #12
 8001148:	46bd      	mov	sp, r7
 800114a:	bc80      	pop	{r7}
 800114c:	4770      	bx	lr

0800114e <_fstat>:


int _fstat(int file, struct stat *st)
{
 800114e:	b480      	push	{r7}
 8001150:	b083      	sub	sp, #12
 8001152:	af00      	add	r7, sp, #0
 8001154:	6078      	str	r0, [r7, #4]
 8001156:	6039      	str	r1, [r7, #0]
	st->st_mode = S_IFCHR;
 8001158:	683b      	ldr	r3, [r7, #0]
 800115a:	f44f 5200 	mov.w	r2, #8192	; 0x2000
 800115e:	605a      	str	r2, [r3, #4]
	return 0;
 8001160:	2300      	movs	r3, #0
}
 8001162:	4618      	mov	r0, r3
 8001164:	370c      	adds	r7, #12
 8001166:	46bd      	mov	sp, r7
 8001168:	bc80      	pop	{r7}
 800116a:	4770      	bx	lr

0800116c <_isatty>:

int _isatty(int file)
{
 800116c:	b480      	push	{r7}
 800116e:	b083      	sub	sp, #12
 8001170:	af00      	add	r7, sp, #0
 8001172:	6078      	str	r0, [r7, #4]
	return 1;
 8001174:	2301      	movs	r3, #1
}
 8001176:	4618      	mov	r0, r3
 8001178:	370c      	adds	r7, #12
 800117a:	46bd      	mov	sp, r7
 800117c:	bc80      	pop	{r7}
 800117e:	4770      	bx	lr

08001180 <_lseek>:

int _lseek(int file, int ptr, int dir)
{
 8001180:	b480      	push	{r7}
 8001182:	b085      	sub	sp, #20
 8001184:	af00      	add	r7, sp, #0
 8001186:	60f8      	str	r0, [r7, #12]
 8001188:	60b9      	str	r1, [r7, #8]
 800118a:	607a      	str	r2, [r7, #4]
	return 0;
 800118c:	2300      	movs	r3, #0
}
 800118e:	4618      	mov	r0, r3
 8001190:	3714      	adds	r7, #20
 8001192:	46bd      	mov	sp, r7
 8001194:	bc80      	pop	{r7}
 8001196:	4770      	bx	lr

08001198 <_sbrk>:
 *
 * @param incr Memory size
 * @return Pointer to allocated memory
 */
void *_sbrk(ptrdiff_t incr)
{
 8001198:	b580      	push	{r7, lr}
 800119a:	b086      	sub	sp, #24
 800119c:	af00      	add	r7, sp, #0
 800119e:	6078      	str	r0, [r7, #4]
  extern uint8_t _end; /* Symbol defined in the linker script */
  extern uint8_t _estack; /* Symbol defined in the linker script */
  extern uint32_t _Min_Stack_Size; /* Symbol defined in the linker script */
  const uint32_t stack_limit = (uint32_t)&_estack - (uint32_t)&_Min_Stack_Size;
 80011a0:	4a14      	ldr	r2, [pc, #80]	; (80011f4 <_sbrk+0x5c>)
 80011a2:	4b15      	ldr	r3, [pc, #84]	; (80011f8 <_sbrk+0x60>)
 80011a4:	1ad3      	subs	r3, r2, r3
 80011a6:	617b      	str	r3, [r7, #20]
  const uint8_t *max_heap = (uint8_t *)stack_limit;
 80011a8:	697b      	ldr	r3, [r7, #20]
 80011aa:	613b      	str	r3, [r7, #16]
  uint8_t *prev_heap_end;

  /* Initialize heap end at first call */
  if (NULL == __sbrk_heap_end)
 80011ac:	4b13      	ldr	r3, [pc, #76]	; (80011fc <_sbrk+0x64>)
 80011ae:	681b      	ldr	r3, [r3, #0]
 80011b0:	2b00      	cmp	r3, #0
 80011b2:	d102      	bne.n	80011ba <_sbrk+0x22>
  {
    __sbrk_heap_end = &_end;
 80011b4:	4b11      	ldr	r3, [pc, #68]	; (80011fc <_sbrk+0x64>)
 80011b6:	4a12      	ldr	r2, [pc, #72]	; (8001200 <_sbrk+0x68>)
 80011b8:	601a      	str	r2, [r3, #0]
  }

  /* Protect heap from growing into the reserved MSP stack */
  if (__sbrk_heap_end + incr > max_heap)
 80011ba:	4b10      	ldr	r3, [pc, #64]	; (80011fc <_sbrk+0x64>)
 80011bc:	681a      	ldr	r2, [r3, #0]
 80011be:	687b      	ldr	r3, [r7, #4]
 80011c0:	4413      	add	r3, r2
 80011c2:	693a      	ldr	r2, [r7, #16]
 80011c4:	429a      	cmp	r2, r3
 80011c6:	d207      	bcs.n	80011d8 <_sbrk+0x40>
  {
    errno = ENOMEM;
 80011c8:	f000 f9da 	bl	8001580 <__errno>
 80011cc:	4603      	mov	r3, r0
 80011ce:	220c      	movs	r2, #12
 80011d0:	601a      	str	r2, [r3, #0]
    return (void *)-1;
 80011d2:	f04f 33ff 	mov.w	r3, #4294967295
 80011d6:	e009      	b.n	80011ec <_sbrk+0x54>
  }

  prev_heap_end = __sbrk_heap_end;
 80011d8:	4b08      	ldr	r3, [pc, #32]	; (80011fc <_sbrk+0x64>)
 80011da:	681b      	ldr	r3, [r3, #0]
 80011dc:	60fb      	str	r3, [r7, #12]
  __sbrk_heap_end += incr;
 80011de:	4b07      	ldr	r3, [pc, #28]	; (80011fc <_sbrk+0x64>)
 80011e0:	681a      	ldr	r2, [r3, #0]
 80011e2:	687b      	ldr	r3, [r7, #4]
 80011e4:	4413      	add	r3, r2
 80011e6:	4a05      	ldr	r2, [pc, #20]	; (80011fc <_sbrk+0x64>)
 80011e8:	6013      	str	r3, [r2, #0]

  return (void *)prev_heap_end;
 80011ea:	68fb      	ldr	r3, [r7, #12]
}
 80011ec:	4618      	mov	r0, r3
 80011ee:	3718      	adds	r7, #24
 80011f0:	46bd      	mov	sp, r7
 80011f2:	bd80      	pop	{r7, pc}
 80011f4:	20005000 	.word	0x20005000
 80011f8:	00000200 	.word	0x00000200
 80011fc:	200000b8 	.word	0x200000b8
 8001200:	20000158 	.word	0x20000158

08001204 <SystemInit>:
  * @note   This function should be used only after reset.
  * @param  None
  * @retval None
  */
void SystemInit (void)
{
 8001204:	b480      	push	{r7}
 8001206:	af00      	add	r7, sp, #0

  /* Configure the Vector Table location -------------------------------------*/
#if defined(USER_VECT_TAB_ADDRESS)
  SCB->VTOR = VECT_TAB_BASE_ADDRESS | VECT_TAB_OFFSET; /* Vector Table Relocation in Internal SRAM. */
#endif /* USER_VECT_TAB_ADDRESS */
}
 8001208:	bf00      	nop
 800120a:	46bd      	mov	sp, r7
 800120c:	bc80      	pop	{r7}
 800120e:	4770      	bx	lr

08001210 <Reset_Handler>:
  .weak Reset_Handler
  .type Reset_Handler, %function
Reset_Handler:

/* Copy the data segment initializers from flash to SRAM */
  ldr r0, =_sdata
 8001210:	480c      	ldr	r0, [pc, #48]	; (8001244 <LoopFillZerobss+0x12>)
  ldr r1, =_edata
 8001212:	490d      	ldr	r1, [pc, #52]	; (8001248 <LoopFillZerobss+0x16>)
  ldr r2, =_sidata
 8001214:	4a0d      	ldr	r2, [pc, #52]	; (800124c <LoopFillZerobss+0x1a>)
  movs r3, #0
 8001216:	2300      	movs	r3, #0
  b LoopCopyDataInit
 8001218:	e002      	b.n	8001220 <LoopCopyDataInit>

0800121a <CopyDataInit>:

CopyDataInit:
  ldr r4, [r2, r3]
 800121a:	58d4      	ldr	r4, [r2, r3]
  str r4, [r0, r3]
 800121c:	50c4      	str	r4, [r0, r3]
  adds r3, r3, #4
 800121e:	3304      	adds	r3, #4

08001220 <LoopCopyDataInit>:

LoopCopyDataInit:
  adds r4, r0, r3
 8001220:	18c4      	adds	r4, r0, r3
  cmp r4, r1
 8001222:	428c      	cmp	r4, r1
  bcc CopyDataInit
 8001224:	d3f9      	bcc.n	800121a <CopyDataInit>
  
/* Zero fill the bss segment. */
  ldr r2, =_sbss
 8001226:	4a0a      	ldr	r2, [pc, #40]	; (8001250 <LoopFillZerobss+0x1e>)
  ldr r4, =_ebss
 8001228:	4c0a      	ldr	r4, [pc, #40]	; (8001254 <LoopFillZerobss+0x22>)
  movs r3, #0
 800122a:	2300      	movs	r3, #0
  b LoopFillZerobss
 800122c:	e001      	b.n	8001232 <LoopFillZerobss>

0800122e <FillZerobss>:

FillZerobss:
  str  r3, [r2]
 800122e:	6013      	str	r3, [r2, #0]
  adds r2, r2, #4
 8001230:	3204      	adds	r2, #4

08001232 <LoopFillZerobss>:

LoopFillZerobss:
  cmp r2, r4
 8001232:	42a2      	cmp	r2, r4
  bcc FillZerobss
 8001234:	d3fb      	bcc.n	800122e <FillZerobss>

/* Call the clock system intitialization function.*/
    bl  SystemInit
 8001236:	f7ff ffe5 	bl	8001204 <SystemInit>
/* Call static constructors */
    bl __libc_init_array
 800123a:	f000 f9a7 	bl	800158c <__libc_init_array>
/* Call the application's entry point.*/
  bl main
 800123e:	f7ff fab3 	bl	80007a8 <main>
  bx lr
 8001242:	4770      	bx	lr
  ldr r0, =_sdata
 8001244:	20000000 	.word	0x20000000
  ldr r1, =_edata
 8001248:	20000084 	.word	0x20000084
  ldr r2, =_sidata
 800124c:	08003738 	.word	0x08003738
  ldr r2, =_sbss
 8001250:	20000084 	.word	0x20000084
  ldr r4, =_ebss
 8001254:	20000158 	.word	0x20000158

08001258 <BusFault_Handler>:
 * @retval : None
*/
    .section .text.Default_Handler,"ax",%progbits
Default_Handler:
Infinite_Loop:
  b Infinite_Loop
 8001258:	e7fe      	b.n	8001258 <BusFault_Handler>
	...

0800125c <ModbusRTU_CRC16_Calculate>:
 *  2 - BADC(младшим регистром вперед, старшим байтом вперед),
 *  3 - DCBA(старшим регистром вперед, старшим байтом вперед).
 *  @retval Возвращает посчитанную CRC16
 **************************************************************************************************
 */
uint16_t ModbusRTU_CRC16_Calculate(uint8_t *data, uint8_t lenght, uint8_t byte_order) {
 800125c:	b480      	push	{r7}
 800125e:	b085      	sub	sp, #20
 8001260:	af00      	add	r7, sp, #0
 8001262:	6078      	str	r0, [r7, #4]
 8001264:	460b      	mov	r3, r1
 8001266:	70fb      	strb	r3, [r7, #3]
 8001268:	4613      	mov	r3, r2
 800126a:	70bb      	strb	r3, [r7, #2]
	uint16_t crc = 0xFFFF;
 800126c:	f64f 73ff 	movw	r3, #65535	; 0xffff
 8001270:	81fb      	strh	r3, [r7, #14]
	while (lenght--) {
 8001272:	e01f      	b.n	80012b4 <ModbusRTU_CRC16_Calculate+0x58>
		crc ^= *data++;
 8001274:	687b      	ldr	r3, [r7, #4]
 8001276:	1c5a      	adds	r2, r3, #1
 8001278:	607a      	str	r2, [r7, #4]
 800127a:	781b      	ldrb	r3, [r3, #0]
 800127c:	b29a      	uxth	r2, r3
 800127e:	89fb      	ldrh	r3, [r7, #14]
 8001280:	4053      	eors	r3, r2
 8001282:	81fb      	strh	r3, [r7, #14]
		for (int i = 0; i < 8; i++) {
 8001284:	2300      	movs	r3, #0
 8001286:	60bb      	str	r3, [r7, #8]
 8001288:	e011      	b.n	80012ae <ModbusRTU_CRC16_Calculate+0x52>
			if (crc & 0x01) {
 800128a:	89fb      	ldrh	r3, [r7, #14]
 800128c:	f003 0301 	and.w	r3, r3, #1
 8001290:	2b00      	cmp	r3, #0
 8001292:	d006      	beq.n	80012a2 <ModbusRTU_CRC16_Calculate+0x46>
				crc = (crc >> 1u) ^ 0xA001;
 8001294:	89fb      	ldrh	r3, [r7, #14]
 8001296:	085b      	lsrs	r3, r3, #1
 8001298:	b29a      	uxth	r2, r3
 800129a:	4b36      	ldr	r3, [pc, #216]	; (8001374 <ModbusRTU_CRC16_Calculate+0x118>)
 800129c:	4053      	eors	r3, r2
 800129e:	81fb      	strh	r3, [r7, #14]
 80012a0:	e002      	b.n	80012a8 <ModbusRTU_CRC16_Calculate+0x4c>
			} else {
				crc = crc >> 1u;
 80012a2:	89fb      	ldrh	r3, [r7, #14]
 80012a4:	085b      	lsrs	r3, r3, #1
 80012a6:	81fb      	strh	r3, [r7, #14]
		for (int i = 0; i < 8; i++) {
 80012a8:	68bb      	ldr	r3, [r7, #8]
 80012aa:	3301      	adds	r3, #1
 80012ac:	60bb      	str	r3, [r7, #8]
 80012ae:	68bb      	ldr	r3, [r7, #8]
 80012b0:	2b07      	cmp	r3, #7
 80012b2:	ddea      	ble.n	800128a <ModbusRTU_CRC16_Calculate+0x2e>
	while (lenght--) {
 80012b4:	78fb      	ldrb	r3, [r7, #3]
 80012b6:	1e5a      	subs	r2, r3, #1
 80012b8:	70fa      	strb	r2, [r7, #3]
 80012ba:	2b00      	cmp	r3, #0
 80012bc:	d1da      	bne.n	8001274 <ModbusRTU_CRC16_Calculate+0x18>
			}
		}
	}
	switch (byte_order) {
 80012be:	78bb      	ldrb	r3, [r7, #2]
 80012c0:	2b03      	cmp	r3, #3
 80012c2:	d850      	bhi.n	8001366 <ModbusRTU_CRC16_Calculate+0x10a>
 80012c4:	a201      	add	r2, pc, #4	; (adr r2, 80012cc <ModbusRTU_CRC16_Calculate+0x70>)
 80012c6:	f852 f023 	ldr.w	pc, [r2, r3, lsl #2]
 80012ca:	bf00      	nop
 80012cc:	08001367 	.word	0x08001367
 80012d0:	080012dd 	.word	0x080012dd
 80012d4:	080012f3 	.word	0x080012f3
 80012d8:	0800132b 	.word	0x0800132b
	case (CRC_BYTE_ORDER_ADCD): //1234(младшим регистром вперед, младшим байтом вперед),
		break;
	case (CRC_BYTE_ORDER_CDAB): //3412(старшим регистром вперед, младшим байтом вперед),
		crc = (crc << 8u) | (crc >> 8u);
 80012dc:	89fb      	ldrh	r3, [r7, #14]
 80012de:	021b      	lsls	r3, r3, #8
 80012e0:	b21a      	sxth	r2, r3
 80012e2:	89fb      	ldrh	r3, [r7, #14]
 80012e4:	0a1b      	lsrs	r3, r3, #8
 80012e6:	b29b      	uxth	r3, r3
 80012e8:	b21b      	sxth	r3, r3
 80012ea:	4313      	orrs	r3, r2
 80012ec:	b21b      	sxth	r3, r3
 80012ee:	81fb      	strh	r3, [r7, #14]
		break;
 80012f0:	e039      	b.n	8001366 <ModbusRTU_CRC16_Calculate+0x10a>
	case (CRC_BYTE_ORDER_BADC): //2143(младшим регистром вперед, старшим байтом вперед),
		crc = (((crc >> 8u) & 0x0F) << 12u) | ((crc >> 12u) << 8u) | ((crc << 12u) << 4u) | ((crc >> 4u) & 0x00F);
 80012f2:	89fb      	ldrh	r3, [r7, #14]
 80012f4:	0a1b      	lsrs	r3, r3, #8
 80012f6:	b29b      	uxth	r3, r3
 80012f8:	031b      	lsls	r3, r3, #12
 80012fa:	b21a      	sxth	r2, r3
 80012fc:	89fb      	ldrh	r3, [r7, #14]
 80012fe:	0b1b      	lsrs	r3, r3, #12
 8001300:	b29b      	uxth	r3, r3
 8001302:	021b      	lsls	r3, r3, #8
 8001304:	b21b      	sxth	r3, r3
 8001306:	4313      	orrs	r3, r2
 8001308:	b21a      	sxth	r2, r3
 800130a:	89fb      	ldrh	r3, [r7, #14]
 800130c:	041b      	lsls	r3, r3, #16
 800130e:	b21b      	sxth	r3, r3
 8001310:	4313      	orrs	r3, r2
 8001312:	b21a      	sxth	r2, r3
 8001314:	89fb      	ldrh	r3, [r7, #14]
 8001316:	091b      	lsrs	r3, r3, #4
 8001318:	b29b      	uxth	r3, r3
 800131a:	b21b      	sxth	r3, r3
 800131c:	f003 030f 	and.w	r3, r3, #15
 8001320:	b21b      	sxth	r3, r3
 8001322:	4313      	orrs	r3, r2
 8001324:	b21b      	sxth	r3, r3
 8001326:	81fb      	strh	r3, [r7, #14]
		break;
 8001328:	e01d      	b.n	8001366 <ModbusRTU_CRC16_Calculate+0x10a>
	case (CRC_BYTE_ORDER_DCBA): //4321(старшим регистром вперед, старшим байтом вперед).
		crc = (((crc >> 8u) & 0x0F) << 4u) | (crc >> 12u) | ((crc << 12u) << 12u) | (((crc >> 4u) & 0x00F) << 8u);
 800132a:	89fb      	ldrh	r3, [r7, #14]
 800132c:	0a1b      	lsrs	r3, r3, #8
 800132e:	b29b      	uxth	r3, r3
 8001330:	011b      	lsls	r3, r3, #4
 8001332:	b21b      	sxth	r3, r3
 8001334:	b2db      	uxtb	r3, r3
 8001336:	b21a      	sxth	r2, r3
 8001338:	89fb      	ldrh	r3, [r7, #14]
 800133a:	0b1b      	lsrs	r3, r3, #12
 800133c:	b29b      	uxth	r3, r3
 800133e:	b21b      	sxth	r3, r3
 8001340:	4313      	orrs	r3, r2
 8001342:	b21a      	sxth	r2, r3
 8001344:	89fb      	ldrh	r3, [r7, #14]
 8001346:	061b      	lsls	r3, r3, #24
 8001348:	b21b      	sxth	r3, r3
 800134a:	4313      	orrs	r3, r2
 800134c:	b21a      	sxth	r2, r3
 800134e:	89fb      	ldrh	r3, [r7, #14]
 8001350:	091b      	lsrs	r3, r3, #4
 8001352:	b29b      	uxth	r3, r3
 8001354:	021b      	lsls	r3, r3, #8
 8001356:	b21b      	sxth	r3, r3
 8001358:	f403 6370 	and.w	r3, r3, #3840	; 0xf00
 800135c:	b21b      	sxth	r3, r3
 800135e:	4313      	orrs	r3, r2
 8001360:	b21b      	sxth	r3, r3
 8001362:	81fb      	strh	r3, [r7, #14]
		break;
 8001364:	bf00      	nop
	}
	return crc;
 8001366:	89fb      	ldrh	r3, [r7, #14]
}
 8001368:	4618      	mov	r0, r3
 800136a:	3714      	adds	r7, #20
 800136c:	46bd      	mov	sp, r7
 800136e:	bc80      	pop	{r7}
 8001370:	4770      	bx	lr
 8001372:	bf00      	nop
 8001374:	ffffa001 	.word	0xffffa001

08001378 <ModbusRTU_slave_Run>:

void ModbusRTU_slave_Run(uint8_t *rx_buffer, uint8_t rx_buffer_len, uint8_t *tx_buffer) {
 8001378:	b580      	push	{r7, lr}
 800137a:	b086      	sub	sp, #24
 800137c:	af00      	add	r7, sp, #0
 800137e:	60f8      	str	r0, [r7, #12]
 8001380:	460b      	mov	r3, r1
 8001382:	607a      	str	r2, [r7, #4]
 8001384:	72fb      	strb	r3, [r7, #11]
	/*===============Здесь начинаем работать работать с приходящими данными================*/
	if (rx_buffer[0] == MODBUS_RTU_SLAVE_ADDR) { // если адрес совпадает, то дальше работаем
 8001386:	68fb      	ldr	r3, [r7, #12]
 8001388:	781a      	ldrb	r2, [r3, #0]
 800138a:	4b19      	ldr	r3, [pc, #100]	; (80013f0 <ModbusRTU_slave_Run+0x78>)
 800138c:	781b      	ldrb	r3, [r3, #0]
 800138e:	429a      	cmp	r2, r3
 8001390:	d129      	bne.n	80013e6 <ModbusRTU_slave_Run+0x6e>

		/*Проверим контрольную сумму*/
		CRC_Check = ModbusRTU_CRC16_Calculate((uint8_t*) rx_buffer, rx_buffer_len - 2, 1); // обращаемся в rx_buffer, длина, порядок байтов
 8001392:	7afb      	ldrb	r3, [r7, #11]
 8001394:	3b02      	subs	r3, #2
 8001396:	b2db      	uxtb	r3, r3
 8001398:	2201      	movs	r2, #1
 800139a:	4619      	mov	r1, r3
 800139c:	68f8      	ldr	r0, [r7, #12]
 800139e:	f7ff ff5d 	bl	800125c <ModbusRTU_CRC16_Calculate>
 80013a2:	4603      	mov	r3, r0
 80013a4:	461a      	mov	r2, r3
 80013a6:	4b13      	ldr	r3, [pc, #76]	; (80013f4 <ModbusRTU_slave_Run+0x7c>)
 80013a8:	801a      	strh	r2, [r3, #0]
		uint16_t CRC16 = ((uint16_t) rx_buffer[rx_buffer_len - 2] << 8U) | rx_buffer[rx_buffer_len - 1];
 80013aa:	7afb      	ldrb	r3, [r7, #11]
 80013ac:	3b02      	subs	r3, #2
 80013ae:	68fa      	ldr	r2, [r7, #12]
 80013b0:	4413      	add	r3, r2
 80013b2:	781b      	ldrb	r3, [r3, #0]
 80013b4:	021b      	lsls	r3, r3, #8
 80013b6:	b21a      	sxth	r2, r3
 80013b8:	7afb      	ldrb	r3, [r7, #11]
 80013ba:	3b01      	subs	r3, #1
 80013bc:	68f9      	ldr	r1, [r7, #12]
 80013be:	440b      	add	r3, r1
 80013c0:	781b      	ldrb	r3, [r3, #0]
 80013c2:	b21b      	sxth	r3, r3
 80013c4:	4313      	orrs	r3, r2
 80013c6:	b21b      	sxth	r3, r3
 80013c8:	82fb      	strh	r3, [r7, #22]
		if (CRC_Check == CRC16) {
 80013ca:	4b0a      	ldr	r3, [pc, #40]	; (80013f4 <ModbusRTU_slave_Run+0x7c>)
 80013cc:	881b      	ldrh	r3, [r3, #0]
 80013ce:	8afa      	ldrh	r2, [r7, #22]
 80013d0:	429a      	cmp	r2, r3
 80013d2:	d108      	bne.n	80013e6 <ModbusRTU_slave_Run+0x6e>

			/*Если CRC16 совпадает - обрабатываем данные*/

			if (rx_buffer[1] == 0x03) {
 80013d4:	68fb      	ldr	r3, [r7, #12]
 80013d6:	3301      	adds	r3, #1
 80013d8:	781b      	ldrb	r3, [r3, #0]
 80013da:	2b03      	cmp	r3, #3
 80013dc:	d103      	bne.n	80013e6 <ModbusRTU_slave_Run+0x6e>
				ModbusRTU_0x03_data_processing(tx_buffer, rx_buffer);
 80013de:	68f9      	ldr	r1, [r7, #12]
 80013e0:	6878      	ldr	r0, [r7, #4]
 80013e2:	f000 f827 	bl	8001434 <ModbusRTU_0x03_data_processing>
			 } else if (rx_buffer[1] == 0x10) {
			 ModbusRTU_0x10_data_processing(tx_buffer, rx_buffer);
			 }*/
		}
	}
}
 80013e6:	bf00      	nop
 80013e8:	3718      	adds	r7, #24
 80013ea:	46bd      	mov	sp, r7
 80013ec:	bd80      	pop	{r7, pc}
 80013ee:	bf00      	nop
 80013f0:	2000001c 	.word	0x2000001c
 80013f4:	200000e2 	.word	0x200000e2

080013f8 <ModbusRTU_fast_Embedded_send_data>:
 *  @attention Для данной функции не нужно создавать отдельно переменные типа float. Можете в нее хоть bool слать, только приведите тип.
 *  @param  *data - локальная переменная любого типа, которую мы приведем к типу float
 *  @param  REG - номер регистра в массиве, куда будем записывать данные
 **************************************************************************************************
 */
void ModbusRTU_fast_Embedded_send_data(float data, uint8_t REG) {
 80013f8:	b480      	push	{r7}
 80013fa:	b085      	sub	sp, #20
 80013fc:	af00      	add	r7, sp, #0
 80013fe:	6078      	str	r0, [r7, #4]
 8001400:	460b      	mov	r3, r1
 8001402:	70fb      	strb	r3, [r7, #3]
	uint32_t convert = *(uint32_t*) &data;
 8001404:	1d3b      	adds	r3, r7, #4
 8001406:	681b      	ldr	r3, [r3, #0]
 8001408:	60fb      	str	r3, [r7, #12]
	ModbusRTU_Slave_MEM[REG + 1] = (uint32_t) convert >> 16u;
 800140a:	68fb      	ldr	r3, [r7, #12]
 800140c:	0c1a      	lsrs	r2, r3, #16
 800140e:	78fb      	ldrb	r3, [r7, #3]
 8001410:	3301      	adds	r3, #1
 8001412:	b291      	uxth	r1, r2
 8001414:	4a06      	ldr	r2, [pc, #24]	; (8001430 <ModbusRTU_fast_Embedded_send_data+0x38>)
 8001416:	f822 1013 	strh.w	r1, [r2, r3, lsl #1]
	ModbusRTU_Slave_MEM[REG] = (uint16_t) convert & 0xFFFF;
 800141a:	78fb      	ldrb	r3, [r7, #3]
 800141c:	68fa      	ldr	r2, [r7, #12]
 800141e:	b291      	uxth	r1, r2
 8001420:	4a03      	ldr	r2, [pc, #12]	; (8001430 <ModbusRTU_fast_Embedded_send_data+0x38>)
 8001422:	f822 1013 	strh.w	r1, [r2, r3, lsl #1]
}
 8001426:	bf00      	nop
 8001428:	3714      	adds	r7, #20
 800142a:	46bd      	mov	sp, r7
 800142c:	bc80      	pop	{r7}
 800142e:	4770      	bx	lr
 8001430:	200000bc 	.word	0x200000bc

08001434 <ModbusRTU_0x03_data_processing>:
 *  @breif Функция обработки запросов по 0x03 (03) функции
 *  @param  *tx_buffer - исходящий буфер uart
 *  @param  *rx_buffer - входящий буфер uart
 **************************************************************************************************
 */
void ModbusRTU_0x03_data_processing(uint8_t *tx_buffer, uint8_t *rx_buffer) {
 8001434:	b580      	push	{r7, lr}
 8001436:	b084      	sub	sp, #16
 8001438:	af00      	add	r7, sp, #0
 800143a:	6078      	str	r0, [r7, #4]
 800143c:	6039      	str	r1, [r7, #0]
	Start_Adress = ((uint16_t) rx_buffer[2] << 8U) | rx_buffer[3]; // стартовый адрес
 800143e:	683b      	ldr	r3, [r7, #0]
 8001440:	3302      	adds	r3, #2
 8001442:	781b      	ldrb	r3, [r3, #0]
 8001444:	021b      	lsls	r3, r3, #8
 8001446:	b21a      	sxth	r2, r3
 8001448:	683b      	ldr	r3, [r7, #0]
 800144a:	3303      	adds	r3, #3
 800144c:	781b      	ldrb	r3, [r3, #0]
 800144e:	b21b      	sxth	r3, r3
 8001450:	4313      	orrs	r3, r2
 8001452:	b21b      	sxth	r3, r3
 8001454:	b29a      	uxth	r2, r3
 8001456:	4b44      	ldr	r3, [pc, #272]	; (8001568 <ModbusRTU_0x03_data_processing+0x134>)
 8001458:	801a      	strh	r2, [r3, #0]
	Amount_of_data = ((uint16_t) rx_buffer[4] << 8U) | rx_buffer[5]; // количество запрашиваемых данных
 800145a:	683b      	ldr	r3, [r7, #0]
 800145c:	3304      	adds	r3, #4
 800145e:	781b      	ldrb	r3, [r3, #0]
 8001460:	021b      	lsls	r3, r3, #8
 8001462:	b21a      	sxth	r2, r3
 8001464:	683b      	ldr	r3, [r7, #0]
 8001466:	3305      	adds	r3, #5
 8001468:	781b      	ldrb	r3, [r3, #0]
 800146a:	b21b      	sxth	r3, r3
 800146c:	4313      	orrs	r3, r2
 800146e:	b21b      	sxth	r3, r3
 8001470:	b29a      	uxth	r2, r3
 8001472:	4b3e      	ldr	r3, [pc, #248]	; (800156c <ModbusRTU_0x03_data_processing+0x138>)
 8001474:	801a      	strh	r2, [r3, #0]

	/*Если старотовый адрес опроса регистра укладывается в нашу память и количество запрашиваемых регистров не превышено*/
	if (Start_Adress <= (MODBUSRTU_SLAVE_ENUM_QUANTITY - 1) && Amount_of_data <= MODBUSRTU_SLAVE_ENUM_QUANTITY) {
 8001476:	4b3c      	ldr	r3, [pc, #240]	; (8001568 <ModbusRTU_0x03_data_processing+0x134>)
 8001478:	881b      	ldrh	r3, [r3, #0]
 800147a:	2b0f      	cmp	r3, #15
 800147c:	d870      	bhi.n	8001560 <ModbusRTU_0x03_data_processing+0x12c>
 800147e:	4b3b      	ldr	r3, [pc, #236]	; (800156c <ModbusRTU_0x03_data_processing+0x138>)
 8001480:	881b      	ldrh	r3, [r3, #0]
 8001482:	2b10      	cmp	r3, #16
 8001484:	d86c      	bhi.n	8001560 <ModbusRTU_0x03_data_processing+0x12c>
		tx_buffer[0] = MODBUS_RTU_SLAVE_ADDR;
 8001486:	4b3a      	ldr	r3, [pc, #232]	; (8001570 <ModbusRTU_0x03_data_processing+0x13c>)
 8001488:	781a      	ldrb	r2, [r3, #0]
 800148a:	687b      	ldr	r3, [r7, #4]
 800148c:	701a      	strb	r2, [r3, #0]
		tx_buffer[1] = 0x03;
 800148e:	687b      	ldr	r3, [r7, #4]
 8001490:	3301      	adds	r3, #1
 8001492:	2203      	movs	r2, #3
 8001494:	701a      	strb	r2, [r3, #0]
		tx_buffer[2] = Amount_of_data * 2;
 8001496:	4b35      	ldr	r3, [pc, #212]	; (800156c <ModbusRTU_0x03_data_processing+0x138>)
 8001498:	881b      	ldrh	r3, [r3, #0]
 800149a:	b2da      	uxtb	r2, r3
 800149c:	687b      	ldr	r3, [r7, #4]
 800149e:	3302      	adds	r3, #2
 80014a0:	0052      	lsls	r2, r2, #1
 80014a2:	b2d2      	uxtb	r2, r2
 80014a4:	701a      	strb	r2, [r3, #0]
		for (uint8_t i = 0; i < Amount_of_data; i++) {
 80014a6:	2300      	movs	r3, #0
 80014a8:	73fb      	strb	r3, [r7, #15]
 80014aa:	e024      	b.n	80014f6 <ModbusRTU_0x03_data_processing+0xc2>
			tx_buffer[3 + 2 * i] = ModbusRTU_Slave_MEM[Start_Adress + i] >> 8U;
 80014ac:	4b2e      	ldr	r3, [pc, #184]	; (8001568 <ModbusRTU_0x03_data_processing+0x134>)
 80014ae:	881b      	ldrh	r3, [r3, #0]
 80014b0:	461a      	mov	r2, r3
 80014b2:	7bfb      	ldrb	r3, [r7, #15]
 80014b4:	4413      	add	r3, r2
 80014b6:	4a2f      	ldr	r2, [pc, #188]	; (8001574 <ModbusRTU_0x03_data_processing+0x140>)
 80014b8:	f832 3013 	ldrh.w	r3, [r2, r3, lsl #1]
 80014bc:	0a1b      	lsrs	r3, r3, #8
 80014be:	b29a      	uxth	r2, r3
 80014c0:	7bfb      	ldrb	r3, [r7, #15]
 80014c2:	005b      	lsls	r3, r3, #1
 80014c4:	3303      	adds	r3, #3
 80014c6:	4619      	mov	r1, r3
 80014c8:	687b      	ldr	r3, [r7, #4]
 80014ca:	440b      	add	r3, r1
 80014cc:	b2d2      	uxtb	r2, r2
 80014ce:	701a      	strb	r2, [r3, #0]
			tx_buffer[4 + 2 * i] = ModbusRTU_Slave_MEM[Start_Adress + i];
 80014d0:	4b25      	ldr	r3, [pc, #148]	; (8001568 <ModbusRTU_0x03_data_processing+0x134>)
 80014d2:	881b      	ldrh	r3, [r3, #0]
 80014d4:	461a      	mov	r2, r3
 80014d6:	7bfb      	ldrb	r3, [r7, #15]
 80014d8:	4413      	add	r3, r2
 80014da:	4a26      	ldr	r2, [pc, #152]	; (8001574 <ModbusRTU_0x03_data_processing+0x140>)
 80014dc:	f832 2013 	ldrh.w	r2, [r2, r3, lsl #1]
 80014e0:	7bfb      	ldrb	r3, [r7, #15]
 80014e2:	3302      	adds	r3, #2
 80014e4:	005b      	lsls	r3, r3, #1
 80014e6:	4619      	mov	r1, r3
 80014e8:	687b      	ldr	r3, [r7, #4]
 80014ea:	440b      	add	r3, r1
 80014ec:	b2d2      	uxtb	r2, r2
 80014ee:	701a      	strb	r2, [r3, #0]
		for (uint8_t i = 0; i < Amount_of_data; i++) {
 80014f0:	7bfb      	ldrb	r3, [r7, #15]
 80014f2:	3301      	adds	r3, #1
 80014f4:	73fb      	strb	r3, [r7, #15]
 80014f6:	7bfb      	ldrb	r3, [r7, #15]
 80014f8:	b29a      	uxth	r2, r3
 80014fa:	4b1c      	ldr	r3, [pc, #112]	; (800156c <ModbusRTU_0x03_data_processing+0x138>)
 80014fc:	881b      	ldrh	r3, [r3, #0]
 80014fe:	429a      	cmp	r2, r3
 8001500:	d3d4      	bcc.n	80014ac <ModbusRTU_0x03_data_processing+0x78>
		}
		Counter_byte = 4 + 2 * (Amount_of_data - 1);
 8001502:	4b1a      	ldr	r3, [pc, #104]	; (800156c <ModbusRTU_0x03_data_processing+0x138>)
 8001504:	881b      	ldrh	r3, [r3, #0]
 8001506:	3301      	adds	r3, #1
 8001508:	b29b      	uxth	r3, r3
 800150a:	005b      	lsls	r3, r3, #1
 800150c:	b29a      	uxth	r2, r3
 800150e:	4b1a      	ldr	r3, [pc, #104]	; (8001578 <ModbusRTU_0x03_data_processing+0x144>)
 8001510:	801a      	strh	r2, [r3, #0]

		//Расчитаем контрольную сумму отправляемого сообщения
		uint16_t CRC_tx_buffer = ModbusRTU_CRC16_Calculate((uint8_t*) tx_buffer, Counter_byte + 1, 1);
 8001512:	4b19      	ldr	r3, [pc, #100]	; (8001578 <ModbusRTU_0x03_data_processing+0x144>)
 8001514:	881b      	ldrh	r3, [r3, #0]
 8001516:	b2db      	uxtb	r3, r3
 8001518:	3301      	adds	r3, #1
 800151a:	b2db      	uxtb	r3, r3
 800151c:	2201      	movs	r2, #1
 800151e:	4619      	mov	r1, r3
 8001520:	6878      	ldr	r0, [r7, #4]
 8001522:	f7ff fe9b 	bl	800125c <ModbusRTU_CRC16_Calculate>
 8001526:	4603      	mov	r3, r0
 8001528:	81bb      	strh	r3, [r7, #12]
		tx_buffer[Counter_byte + 1] = CRC_tx_buffer >> 8U;
 800152a:	89bb      	ldrh	r3, [r7, #12]
 800152c:	0a1b      	lsrs	r3, r3, #8
 800152e:	b299      	uxth	r1, r3
 8001530:	4b11      	ldr	r3, [pc, #68]	; (8001578 <ModbusRTU_0x03_data_processing+0x144>)
 8001532:	881b      	ldrh	r3, [r3, #0]
 8001534:	3301      	adds	r3, #1
 8001536:	687a      	ldr	r2, [r7, #4]
 8001538:	4413      	add	r3, r2
 800153a:	b2ca      	uxtb	r2, r1
 800153c:	701a      	strb	r2, [r3, #0]
		tx_buffer[Counter_byte + 2] = CRC_tx_buffer & 0x00FF;
 800153e:	4b0e      	ldr	r3, [pc, #56]	; (8001578 <ModbusRTU_0x03_data_processing+0x144>)
 8001540:	881b      	ldrh	r3, [r3, #0]
 8001542:	3302      	adds	r3, #2
 8001544:	687a      	ldr	r2, [r7, #4]
 8001546:	4413      	add	r3, r2
 8001548:	89ba      	ldrh	r2, [r7, #12]
 800154a:	b2d2      	uxtb	r2, r2
 800154c:	701a      	strb	r2, [r3, #0]

		// Отправим данные в ответ
#if defined (MODBUSRTU_USE_CMSIS)
		CMSIS_USART_Transmit(USART1, (uint8_t*) tx_buffer, Counter_byte + 3, 100);
 800154e:	4b0a      	ldr	r3, [pc, #40]	; (8001578 <ModbusRTU_0x03_data_processing+0x144>)
 8001550:	881b      	ldrh	r3, [r3, #0]
 8001552:	3303      	adds	r3, #3
 8001554:	b29a      	uxth	r2, r3
 8001556:	2364      	movs	r3, #100	; 0x64
 8001558:	6879      	ldr	r1, [r7, #4]
 800155a:	4808      	ldr	r0, [pc, #32]	; (800157c <ModbusRTU_0x03_data_processing+0x148>)
 800155c:	f7ff fd50 	bl	8001000 <CMSIS_USART_Transmit>
#endif
#if defined (MODBUSRTU_USE_HAL)
		HAL_UART_Transmit(&huart1, (uint8_t*)tx_buffer, Counter_byte + 3, 1000);
#endif
	}
}
 8001560:	bf00      	nop
 8001562:	3710      	adds	r7, #16
 8001564:	46bd      	mov	sp, r7
 8001566:	bd80      	pop	{r7, pc}
 8001568:	200000dc 	.word	0x200000dc
 800156c:	200000de 	.word	0x200000de
 8001570:	2000001c 	.word	0x2000001c
 8001574:	200000bc 	.word	0x200000bc
 8001578:	200000e0 	.word	0x200000e0
 800157c:	40013800 	.word	0x40013800

08001580 <__errno>:
 8001580:	4b01      	ldr	r3, [pc, #4]	; (8001588 <__errno+0x8>)
 8001582:	6818      	ldr	r0, [r3, #0]
 8001584:	4770      	bx	lr
 8001586:	bf00      	nop
 8001588:	20000020 	.word	0x20000020

0800158c <__libc_init_array>:
 800158c:	b570      	push	{r4, r5, r6, lr}
 800158e:	2600      	movs	r6, #0
 8001590:	4d0c      	ldr	r5, [pc, #48]	; (80015c4 <__libc_init_array+0x38>)
 8001592:	4c0d      	ldr	r4, [pc, #52]	; (80015c8 <__libc_init_array+0x3c>)
 8001594:	1b64      	subs	r4, r4, r5
 8001596:	10a4      	asrs	r4, r4, #2
 8001598:	42a6      	cmp	r6, r4
 800159a:	d109      	bne.n	80015b0 <__libc_init_array+0x24>
 800159c:	f001 fe2e 	bl	80031fc <_init>
 80015a0:	2600      	movs	r6, #0
 80015a2:	4d0a      	ldr	r5, [pc, #40]	; (80015cc <__libc_init_array+0x40>)
 80015a4:	4c0a      	ldr	r4, [pc, #40]	; (80015d0 <__libc_init_array+0x44>)
 80015a6:	1b64      	subs	r4, r4, r5
 80015a8:	10a4      	asrs	r4, r4, #2
 80015aa:	42a6      	cmp	r6, r4
 80015ac:	d105      	bne.n	80015ba <__libc_init_array+0x2e>
 80015ae:	bd70      	pop	{r4, r5, r6, pc}
 80015b0:	f855 3b04 	ldr.w	r3, [r5], #4
 80015b4:	4798      	blx	r3
 80015b6:	3601      	adds	r6, #1
 80015b8:	e7ee      	b.n	8001598 <__libc_init_array+0xc>
 80015ba:	f855 3b04 	ldr.w	r3, [r5], #4
 80015be:	4798      	blx	r3
 80015c0:	3601      	adds	r6, #1
 80015c2:	e7f2      	b.n	80015aa <__libc_init_array+0x1e>
 80015c4:	08003730 	.word	0x08003730
 80015c8:	08003730 	.word	0x08003730
 80015cc:	08003730 	.word	0x08003730
 80015d0:	08003734 	.word	0x08003734

080015d4 <memset>:
 80015d4:	4603      	mov	r3, r0
 80015d6:	4402      	add	r2, r0
 80015d8:	4293      	cmp	r3, r2
 80015da:	d100      	bne.n	80015de <memset+0xa>
 80015dc:	4770      	bx	lr
 80015de:	f803 1b01 	strb.w	r1, [r3], #1
 80015e2:	e7f9      	b.n	80015d8 <memset+0x4>

080015e4 <srand>:
 80015e4:	b538      	push	{r3, r4, r5, lr}
 80015e6:	4b10      	ldr	r3, [pc, #64]	; (8001628 <srand+0x44>)
 80015e8:	4604      	mov	r4, r0
 80015ea:	681d      	ldr	r5, [r3, #0]
 80015ec:	6bab      	ldr	r3, [r5, #56]	; 0x38
 80015ee:	b9b3      	cbnz	r3, 800161e <srand+0x3a>
 80015f0:	2018      	movs	r0, #24
 80015f2:	f000 f895 	bl	8001720 <malloc>
 80015f6:	4602      	mov	r2, r0
 80015f8:	63a8      	str	r0, [r5, #56]	; 0x38
 80015fa:	b920      	cbnz	r0, 8001606 <srand+0x22>
 80015fc:	2142      	movs	r1, #66	; 0x42
 80015fe:	4b0b      	ldr	r3, [pc, #44]	; (800162c <srand+0x48>)
 8001600:	480b      	ldr	r0, [pc, #44]	; (8001630 <srand+0x4c>)
 8001602:	f000 f85d 	bl	80016c0 <__assert_func>
 8001606:	490b      	ldr	r1, [pc, #44]	; (8001634 <srand+0x50>)
 8001608:	4b0b      	ldr	r3, [pc, #44]	; (8001638 <srand+0x54>)
 800160a:	e9c0 1300 	strd	r1, r3, [r0]
 800160e:	4b0b      	ldr	r3, [pc, #44]	; (800163c <srand+0x58>)
 8001610:	2100      	movs	r1, #0
 8001612:	6083      	str	r3, [r0, #8]
 8001614:	230b      	movs	r3, #11
 8001616:	8183      	strh	r3, [r0, #12]
 8001618:	2001      	movs	r0, #1
 800161a:	e9c2 0104 	strd	r0, r1, [r2, #16]
 800161e:	2200      	movs	r2, #0
 8001620:	6bab      	ldr	r3, [r5, #56]	; 0x38
 8001622:	611c      	str	r4, [r3, #16]
 8001624:	615a      	str	r2, [r3, #20]
 8001626:	bd38      	pop	{r3, r4, r5, pc}
 8001628:	20000020 	.word	0x20000020
 800162c:	08003218 	.word	0x08003218
 8001630:	0800322f 	.word	0x0800322f
 8001634:	abcd330e 	.word	0xabcd330e
 8001638:	e66d1234 	.word	0xe66d1234
 800163c:	0005deec 	.word	0x0005deec

08001640 <rand>:
 8001640:	4b17      	ldr	r3, [pc, #92]	; (80016a0 <rand+0x60>)
 8001642:	b510      	push	{r4, lr}
 8001644:	681c      	ldr	r4, [r3, #0]
 8001646:	6ba3      	ldr	r3, [r4, #56]	; 0x38
 8001648:	b9b3      	cbnz	r3, 8001678 <rand+0x38>
 800164a:	2018      	movs	r0, #24
 800164c:	f000 f868 	bl	8001720 <malloc>
 8001650:	4602      	mov	r2, r0
 8001652:	63a0      	str	r0, [r4, #56]	; 0x38
 8001654:	b920      	cbnz	r0, 8001660 <rand+0x20>
 8001656:	214e      	movs	r1, #78	; 0x4e
 8001658:	4b12      	ldr	r3, [pc, #72]	; (80016a4 <rand+0x64>)
 800165a:	4813      	ldr	r0, [pc, #76]	; (80016a8 <rand+0x68>)
 800165c:	f000 f830 	bl	80016c0 <__assert_func>
 8001660:	4912      	ldr	r1, [pc, #72]	; (80016ac <rand+0x6c>)
 8001662:	4b13      	ldr	r3, [pc, #76]	; (80016b0 <rand+0x70>)
 8001664:	e9c0 1300 	strd	r1, r3, [r0]
 8001668:	4b12      	ldr	r3, [pc, #72]	; (80016b4 <rand+0x74>)
 800166a:	2100      	movs	r1, #0
 800166c:	6083      	str	r3, [r0, #8]
 800166e:	230b      	movs	r3, #11
 8001670:	8183      	strh	r3, [r0, #12]
 8001672:	2001      	movs	r0, #1
 8001674:	e9c2 0104 	strd	r0, r1, [r2, #16]
 8001678:	6ba1      	ldr	r1, [r4, #56]	; 0x38
 800167a:	480f      	ldr	r0, [pc, #60]	; (80016b8 <rand+0x78>)
 800167c:	690a      	ldr	r2, [r1, #16]
 800167e:	694b      	ldr	r3, [r1, #20]
 8001680:	4350      	muls	r0, r2
 8001682:	4c0e      	ldr	r4, [pc, #56]	; (80016bc <rand+0x7c>)
 8001684:	fb04 0003 	mla	r0, r4, r3, r0
 8001688:	fba2 3404 	umull	r3, r4, r2, r4
 800168c:	1c5a      	adds	r2, r3, #1
 800168e:	4404      	add	r4, r0
 8001690:	f144 0000 	adc.w	r0, r4, #0
 8001694:	e9c1 2004 	strd	r2, r0, [r1, #16]
 8001698:	f020 4000 	bic.w	r0, r0, #2147483648	; 0x80000000
 800169c:	bd10      	pop	{r4, pc}
 800169e:	bf00      	nop
 80016a0:	20000020 	.word	0x20000020
 80016a4:	08003218 	.word	0x08003218
 80016a8:	0800322f 	.word	0x0800322f
 80016ac:	abcd330e 	.word	0xabcd330e
 80016b0:	e66d1234 	.word	0xe66d1234
 80016b4:	0005deec 	.word	0x0005deec
 80016b8:	5851f42d 	.word	0x5851f42d
 80016bc:	4c957f2d 	.word	0x4c957f2d

080016c0 <__assert_func>:
 80016c0:	b51f      	push	{r0, r1, r2, r3, r4, lr}
 80016c2:	4614      	mov	r4, r2
 80016c4:	461a      	mov	r2, r3
 80016c6:	4b09      	ldr	r3, [pc, #36]	; (80016ec <__assert_func+0x2c>)
 80016c8:	4605      	mov	r5, r0
 80016ca:	681b      	ldr	r3, [r3, #0]
 80016cc:	68d8      	ldr	r0, [r3, #12]
 80016ce:	b14c      	cbz	r4, 80016e4 <__assert_func+0x24>
 80016d0:	4b07      	ldr	r3, [pc, #28]	; (80016f0 <__assert_func+0x30>)
 80016d2:	e9cd 3401 	strd	r3, r4, [sp, #4]
 80016d6:	9100      	str	r1, [sp, #0]
 80016d8:	462b      	mov	r3, r5
 80016da:	4906      	ldr	r1, [pc, #24]	; (80016f4 <__assert_func+0x34>)
 80016dc:	f000 f80e 	bl	80016fc <fiprintf>
 80016e0:	f000 fc8a 	bl	8001ff8 <abort>
 80016e4:	4b04      	ldr	r3, [pc, #16]	; (80016f8 <__assert_func+0x38>)
 80016e6:	461c      	mov	r4, r3
 80016e8:	e7f3      	b.n	80016d2 <__assert_func+0x12>
 80016ea:	bf00      	nop
 80016ec:	20000020 	.word	0x20000020
 80016f0:	0800328e 	.word	0x0800328e
 80016f4:	0800329b 	.word	0x0800329b
 80016f8:	080032c9 	.word	0x080032c9

080016fc <fiprintf>:
 80016fc:	b40e      	push	{r1, r2, r3}
 80016fe:	b503      	push	{r0, r1, lr}
 8001700:	4601      	mov	r1, r0
 8001702:	ab03      	add	r3, sp, #12
 8001704:	4805      	ldr	r0, [pc, #20]	; (800171c <fiprintf+0x20>)
 8001706:	f853 2b04 	ldr.w	r2, [r3], #4
 800170a:	6800      	ldr	r0, [r0, #0]
 800170c:	9301      	str	r3, [sp, #4]
 800170e:	f000 f8dd 	bl	80018cc <_vfiprintf_r>
 8001712:	b002      	add	sp, #8
 8001714:	f85d eb04 	ldr.w	lr, [sp], #4
 8001718:	b003      	add	sp, #12
 800171a:	4770      	bx	lr
 800171c:	20000020 	.word	0x20000020

08001720 <malloc>:
 8001720:	4b02      	ldr	r3, [pc, #8]	; (800172c <malloc+0xc>)
 8001722:	4601      	mov	r1, r0
 8001724:	6818      	ldr	r0, [r3, #0]
 8001726:	f000 b84f 	b.w	80017c8 <_malloc_r>
 800172a:	bf00      	nop
 800172c:	20000020 	.word	0x20000020

08001730 <_free_r>:
 8001730:	b538      	push	{r3, r4, r5, lr}
 8001732:	4605      	mov	r5, r0
 8001734:	2900      	cmp	r1, #0
 8001736:	d043      	beq.n	80017c0 <_free_r+0x90>
 8001738:	f851 3c04 	ldr.w	r3, [r1, #-4]
 800173c:	1f0c      	subs	r4, r1, #4
 800173e:	2b00      	cmp	r3, #0
 8001740:	bfb8      	it	lt
 8001742:	18e4      	addlt	r4, r4, r3
 8001744:	f000 fe8c 	bl	8002460 <__malloc_lock>
 8001748:	4a1e      	ldr	r2, [pc, #120]	; (80017c4 <_free_r+0x94>)
 800174a:	6813      	ldr	r3, [r2, #0]
 800174c:	4610      	mov	r0, r2
 800174e:	b933      	cbnz	r3, 800175e <_free_r+0x2e>
 8001750:	6063      	str	r3, [r4, #4]
 8001752:	6014      	str	r4, [r2, #0]
 8001754:	4628      	mov	r0, r5
 8001756:	e8bd 4038 	ldmia.w	sp!, {r3, r4, r5, lr}
 800175a:	f000 be87 	b.w	800246c <__malloc_unlock>
 800175e:	42a3      	cmp	r3, r4
 8001760:	d90a      	bls.n	8001778 <_free_r+0x48>
 8001762:	6821      	ldr	r1, [r4, #0]
 8001764:	1862      	adds	r2, r4, r1
 8001766:	4293      	cmp	r3, r2
 8001768:	bf01      	itttt	eq
 800176a:	681a      	ldreq	r2, [r3, #0]
 800176c:	685b      	ldreq	r3, [r3, #4]
 800176e:	1852      	addeq	r2, r2, r1
 8001770:	6022      	streq	r2, [r4, #0]
 8001772:	6063      	str	r3, [r4, #4]
 8001774:	6004      	str	r4, [r0, #0]
 8001776:	e7ed      	b.n	8001754 <_free_r+0x24>
 8001778:	461a      	mov	r2, r3
 800177a:	685b      	ldr	r3, [r3, #4]
 800177c:	b10b      	cbz	r3, 8001782 <_free_r+0x52>
 800177e:	42a3      	cmp	r3, r4
 8001780:	d9fa      	bls.n	8001778 <_free_r+0x48>
 8001782:	6811      	ldr	r1, [r2, #0]
 8001784:	1850      	adds	r0, r2, r1
 8001786:	42a0      	cmp	r0, r4
 8001788:	d10b      	bne.n	80017a2 <_free_r+0x72>
 800178a:	6820      	ldr	r0, [r4, #0]
 800178c:	4401      	add	r1, r0
 800178e:	1850      	adds	r0, r2, r1
 8001790:	4283      	cmp	r3, r0
 8001792:	6011      	str	r1, [r2, #0]
 8001794:	d1de      	bne.n	8001754 <_free_r+0x24>
 8001796:	6818      	ldr	r0, [r3, #0]
 8001798:	685b      	ldr	r3, [r3, #4]
 800179a:	4401      	add	r1, r0
 800179c:	6011      	str	r1, [r2, #0]
 800179e:	6053      	str	r3, [r2, #4]
 80017a0:	e7d8      	b.n	8001754 <_free_r+0x24>
 80017a2:	d902      	bls.n	80017aa <_free_r+0x7a>
 80017a4:	230c      	movs	r3, #12
 80017a6:	602b      	str	r3, [r5, #0]
 80017a8:	e7d4      	b.n	8001754 <_free_r+0x24>
 80017aa:	6820      	ldr	r0, [r4, #0]
 80017ac:	1821      	adds	r1, r4, r0
 80017ae:	428b      	cmp	r3, r1
 80017b0:	bf01      	itttt	eq
 80017b2:	6819      	ldreq	r1, [r3, #0]
 80017b4:	685b      	ldreq	r3, [r3, #4]
 80017b6:	1809      	addeq	r1, r1, r0
 80017b8:	6021      	streq	r1, [r4, #0]
 80017ba:	6063      	str	r3, [r4, #4]
 80017bc:	6054      	str	r4, [r2, #4]
 80017be:	e7c9      	b.n	8001754 <_free_r+0x24>
 80017c0:	bd38      	pop	{r3, r4, r5, pc}
 80017c2:	bf00      	nop
 80017c4:	200000e8 	.word	0x200000e8

080017c8 <_malloc_r>:
 80017c8:	b5f8      	push	{r3, r4, r5, r6, r7, lr}
 80017ca:	1ccd      	adds	r5, r1, #3
 80017cc:	f025 0503 	bic.w	r5, r5, #3
 80017d0:	3508      	adds	r5, #8
 80017d2:	2d0c      	cmp	r5, #12
 80017d4:	bf38      	it	cc
 80017d6:	250c      	movcc	r5, #12
 80017d8:	2d00      	cmp	r5, #0
 80017da:	4606      	mov	r6, r0
 80017dc:	db01      	blt.n	80017e2 <_malloc_r+0x1a>
 80017de:	42a9      	cmp	r1, r5
 80017e0:	d903      	bls.n	80017ea <_malloc_r+0x22>
 80017e2:	230c      	movs	r3, #12
 80017e4:	6033      	str	r3, [r6, #0]
 80017e6:	2000      	movs	r0, #0
 80017e8:	bdf8      	pop	{r3, r4, r5, r6, r7, pc}
 80017ea:	f000 fe39 	bl	8002460 <__malloc_lock>
 80017ee:	4921      	ldr	r1, [pc, #132]	; (8001874 <_malloc_r+0xac>)
 80017f0:	680a      	ldr	r2, [r1, #0]
 80017f2:	4614      	mov	r4, r2
 80017f4:	b99c      	cbnz	r4, 800181e <_malloc_r+0x56>
 80017f6:	4f20      	ldr	r7, [pc, #128]	; (8001878 <_malloc_r+0xb0>)
 80017f8:	683b      	ldr	r3, [r7, #0]
 80017fa:	b923      	cbnz	r3, 8001806 <_malloc_r+0x3e>
 80017fc:	4621      	mov	r1, r4
 80017fe:	4630      	mov	r0, r6
 8001800:	f000 fb2a 	bl	8001e58 <_sbrk_r>
 8001804:	6038      	str	r0, [r7, #0]
 8001806:	4629      	mov	r1, r5
 8001808:	4630      	mov	r0, r6
 800180a:	f000 fb25 	bl	8001e58 <_sbrk_r>
 800180e:	1c43      	adds	r3, r0, #1
 8001810:	d123      	bne.n	800185a <_malloc_r+0x92>
 8001812:	230c      	movs	r3, #12
 8001814:	4630      	mov	r0, r6
 8001816:	6033      	str	r3, [r6, #0]
 8001818:	f000 fe28 	bl	800246c <__malloc_unlock>
 800181c:	e7e3      	b.n	80017e6 <_malloc_r+0x1e>
 800181e:	6823      	ldr	r3, [r4, #0]
 8001820:	1b5b      	subs	r3, r3, r5
 8001822:	d417      	bmi.n	8001854 <_malloc_r+0x8c>
 8001824:	2b0b      	cmp	r3, #11
 8001826:	d903      	bls.n	8001830 <_malloc_r+0x68>
 8001828:	6023      	str	r3, [r4, #0]
 800182a:	441c      	add	r4, r3
 800182c:	6025      	str	r5, [r4, #0]
 800182e:	e004      	b.n	800183a <_malloc_r+0x72>
 8001830:	6863      	ldr	r3, [r4, #4]
 8001832:	42a2      	cmp	r2, r4
 8001834:	bf0c      	ite	eq
 8001836:	600b      	streq	r3, [r1, #0]
 8001838:	6053      	strne	r3, [r2, #4]
 800183a:	4630      	mov	r0, r6
 800183c:	f000 fe16 	bl	800246c <__malloc_unlock>
 8001840:	f104 000b 	add.w	r0, r4, #11
 8001844:	1d23      	adds	r3, r4, #4
 8001846:	f020 0007 	bic.w	r0, r0, #7
 800184a:	1ac2      	subs	r2, r0, r3
 800184c:	d0cc      	beq.n	80017e8 <_malloc_r+0x20>
 800184e:	1a1b      	subs	r3, r3, r0
 8001850:	50a3      	str	r3, [r4, r2]
 8001852:	e7c9      	b.n	80017e8 <_malloc_r+0x20>
 8001854:	4622      	mov	r2, r4
 8001856:	6864      	ldr	r4, [r4, #4]
 8001858:	e7cc      	b.n	80017f4 <_malloc_r+0x2c>
 800185a:	1cc4      	adds	r4, r0, #3
 800185c:	f024 0403 	bic.w	r4, r4, #3
 8001860:	42a0      	cmp	r0, r4
 8001862:	d0e3      	beq.n	800182c <_malloc_r+0x64>
 8001864:	1a21      	subs	r1, r4, r0
 8001866:	4630      	mov	r0, r6
 8001868:	f000 faf6 	bl	8001e58 <_sbrk_r>
 800186c:	3001      	adds	r0, #1
 800186e:	d1dd      	bne.n	800182c <_malloc_r+0x64>
 8001870:	e7cf      	b.n	8001812 <_malloc_r+0x4a>
 8001872:	bf00      	nop
 8001874:	200000e8 	.word	0x200000e8
 8001878:	200000ec 	.word	0x200000ec

0800187c <__sfputc_r>:
 800187c:	6893      	ldr	r3, [r2, #8]
 800187e:	b410      	push	{r4}
 8001880:	3b01      	subs	r3, #1
 8001882:	2b00      	cmp	r3, #0
 8001884:	6093      	str	r3, [r2, #8]
 8001886:	da07      	bge.n	8001898 <__sfputc_r+0x1c>
 8001888:	6994      	ldr	r4, [r2, #24]
 800188a:	42a3      	cmp	r3, r4
 800188c:	db01      	blt.n	8001892 <__sfputc_r+0x16>
 800188e:	290a      	cmp	r1, #10
 8001890:	d102      	bne.n	8001898 <__sfputc_r+0x1c>
 8001892:	bc10      	pop	{r4}
 8001894:	f000 baf0 	b.w	8001e78 <__swbuf_r>
 8001898:	6813      	ldr	r3, [r2, #0]
 800189a:	1c58      	adds	r0, r3, #1
 800189c:	6010      	str	r0, [r2, #0]
 800189e:	7019      	strb	r1, [r3, #0]
 80018a0:	4608      	mov	r0, r1
 80018a2:	bc10      	pop	{r4}
 80018a4:	4770      	bx	lr

080018a6 <__sfputs_r>:
 80018a6:	b5f8      	push	{r3, r4, r5, r6, r7, lr}
 80018a8:	4606      	mov	r6, r0
 80018aa:	460f      	mov	r7, r1
 80018ac:	4614      	mov	r4, r2
 80018ae:	18d5      	adds	r5, r2, r3
 80018b0:	42ac      	cmp	r4, r5
 80018b2:	d101      	bne.n	80018b8 <__sfputs_r+0x12>
 80018b4:	2000      	movs	r0, #0
 80018b6:	e007      	b.n	80018c8 <__sfputs_r+0x22>
 80018b8:	463a      	mov	r2, r7
 80018ba:	4630      	mov	r0, r6
 80018bc:	f814 1b01 	ldrb.w	r1, [r4], #1
 80018c0:	f7ff ffdc 	bl	800187c <__sfputc_r>
 80018c4:	1c43      	adds	r3, r0, #1
 80018c6:	d1f3      	bne.n	80018b0 <__sfputs_r+0xa>
 80018c8:	bdf8      	pop	{r3, r4, r5, r6, r7, pc}
	...

080018cc <_vfiprintf_r>:
 80018cc:	e92d 4ff0 	stmdb	sp!, {r4, r5, r6, r7, r8, r9, sl, fp, lr}
 80018d0:	460d      	mov	r5, r1
 80018d2:	4614      	mov	r4, r2
 80018d4:	4698      	mov	r8, r3
 80018d6:	4606      	mov	r6, r0
 80018d8:	b09d      	sub	sp, #116	; 0x74
 80018da:	b118      	cbz	r0, 80018e4 <_vfiprintf_r+0x18>
 80018dc:	6983      	ldr	r3, [r0, #24]
 80018de:	b90b      	cbnz	r3, 80018e4 <_vfiprintf_r+0x18>
 80018e0:	f000 fcac 	bl	800223c <__sinit>
 80018e4:	4b89      	ldr	r3, [pc, #548]	; (8001b0c <_vfiprintf_r+0x240>)
 80018e6:	429d      	cmp	r5, r3
 80018e8:	d11b      	bne.n	8001922 <_vfiprintf_r+0x56>
 80018ea:	6875      	ldr	r5, [r6, #4]
 80018ec:	6e6b      	ldr	r3, [r5, #100]	; 0x64
 80018ee:	07d9      	lsls	r1, r3, #31
 80018f0:	d405      	bmi.n	80018fe <_vfiprintf_r+0x32>
 80018f2:	89ab      	ldrh	r3, [r5, #12]
 80018f4:	059a      	lsls	r2, r3, #22
 80018f6:	d402      	bmi.n	80018fe <_vfiprintf_r+0x32>
 80018f8:	6da8      	ldr	r0, [r5, #88]	; 0x58
 80018fa:	f000 fd3d 	bl	8002378 <__retarget_lock_acquire_recursive>
 80018fe:	89ab      	ldrh	r3, [r5, #12]
 8001900:	071b      	lsls	r3, r3, #28
 8001902:	d501      	bpl.n	8001908 <_vfiprintf_r+0x3c>
 8001904:	692b      	ldr	r3, [r5, #16]
 8001906:	b9eb      	cbnz	r3, 8001944 <_vfiprintf_r+0x78>
 8001908:	4629      	mov	r1, r5
 800190a:	4630      	mov	r0, r6
 800190c:	f000 fb06 	bl	8001f1c <__swsetup_r>
 8001910:	b1c0      	cbz	r0, 8001944 <_vfiprintf_r+0x78>
 8001912:	6e6b      	ldr	r3, [r5, #100]	; 0x64
 8001914:	07dc      	lsls	r4, r3, #31
 8001916:	d50e      	bpl.n	8001936 <_vfiprintf_r+0x6a>
 8001918:	f04f 30ff 	mov.w	r0, #4294967295
 800191c:	b01d      	add	sp, #116	; 0x74
 800191e:	e8bd 8ff0 	ldmia.w	sp!, {r4, r5, r6, r7, r8, r9, sl, fp, pc}
 8001922:	4b7b      	ldr	r3, [pc, #492]	; (8001b10 <_vfiprintf_r+0x244>)
 8001924:	429d      	cmp	r5, r3
 8001926:	d101      	bne.n	800192c <_vfiprintf_r+0x60>
 8001928:	68b5      	ldr	r5, [r6, #8]
 800192a:	e7df      	b.n	80018ec <_vfiprintf_r+0x20>
 800192c:	4b79      	ldr	r3, [pc, #484]	; (8001b14 <_vfiprintf_r+0x248>)
 800192e:	429d      	cmp	r5, r3
 8001930:	bf08      	it	eq
 8001932:	68f5      	ldreq	r5, [r6, #12]
 8001934:	e7da      	b.n	80018ec <_vfiprintf_r+0x20>
 8001936:	89ab      	ldrh	r3, [r5, #12]
 8001938:	0598      	lsls	r0, r3, #22
 800193a:	d4ed      	bmi.n	8001918 <_vfiprintf_r+0x4c>
 800193c:	6da8      	ldr	r0, [r5, #88]	; 0x58
 800193e:	f000 fd1c 	bl	800237a <__retarget_lock_release_recursive>
 8001942:	e7e9      	b.n	8001918 <_vfiprintf_r+0x4c>
 8001944:	2300      	movs	r3, #0
 8001946:	9309      	str	r3, [sp, #36]	; 0x24
 8001948:	2320      	movs	r3, #32
 800194a:	f88d 3029 	strb.w	r3, [sp, #41]	; 0x29
 800194e:	2330      	movs	r3, #48	; 0x30
 8001950:	f04f 0901 	mov.w	r9, #1
 8001954:	f8cd 800c 	str.w	r8, [sp, #12]
 8001958:	f8df 81bc 	ldr.w	r8, [pc, #444]	; 8001b18 <_vfiprintf_r+0x24c>
 800195c:	f88d 302a 	strb.w	r3, [sp, #42]	; 0x2a
 8001960:	4623      	mov	r3, r4
 8001962:	469a      	mov	sl, r3
 8001964:	f813 2b01 	ldrb.w	r2, [r3], #1
 8001968:	b10a      	cbz	r2, 800196e <_vfiprintf_r+0xa2>
 800196a:	2a25      	cmp	r2, #37	; 0x25
 800196c:	d1f9      	bne.n	8001962 <_vfiprintf_r+0x96>
 800196e:	ebba 0b04 	subs.w	fp, sl, r4
 8001972:	d00b      	beq.n	800198c <_vfiprintf_r+0xc0>
 8001974:	465b      	mov	r3, fp
 8001976:	4622      	mov	r2, r4
 8001978:	4629      	mov	r1, r5
 800197a:	4630      	mov	r0, r6
 800197c:	f7ff ff93 	bl	80018a6 <__sfputs_r>
 8001980:	3001      	adds	r0, #1
 8001982:	f000 80aa 	beq.w	8001ada <_vfiprintf_r+0x20e>
 8001986:	9a09      	ldr	r2, [sp, #36]	; 0x24
 8001988:	445a      	add	r2, fp
 800198a:	9209      	str	r2, [sp, #36]	; 0x24
 800198c:	f89a 3000 	ldrb.w	r3, [sl]
 8001990:	2b00      	cmp	r3, #0
 8001992:	f000 80a2 	beq.w	8001ada <_vfiprintf_r+0x20e>
 8001996:	2300      	movs	r3, #0
 8001998:	f04f 32ff 	mov.w	r2, #4294967295
 800199c:	e9cd 2305 	strd	r2, r3, [sp, #20]
 80019a0:	f10a 0a01 	add.w	sl, sl, #1
 80019a4:	9304      	str	r3, [sp, #16]
 80019a6:	9307      	str	r3, [sp, #28]
 80019a8:	f88d 3053 	strb.w	r3, [sp, #83]	; 0x53
 80019ac:	931a      	str	r3, [sp, #104]	; 0x68
 80019ae:	4654      	mov	r4, sl
 80019b0:	2205      	movs	r2, #5
 80019b2:	f814 1b01 	ldrb.w	r1, [r4], #1
 80019b6:	4858      	ldr	r0, [pc, #352]	; (8001b18 <_vfiprintf_r+0x24c>)
 80019b8:	f000 fd44 	bl	8002444 <memchr>
 80019bc:	9a04      	ldr	r2, [sp, #16]
 80019be:	b9d8      	cbnz	r0, 80019f8 <_vfiprintf_r+0x12c>
 80019c0:	06d1      	lsls	r1, r2, #27
 80019c2:	bf44      	itt	mi
 80019c4:	2320      	movmi	r3, #32
 80019c6:	f88d 3053 	strbmi.w	r3, [sp, #83]	; 0x53
 80019ca:	0713      	lsls	r3, r2, #28
 80019cc:	bf44      	itt	mi
 80019ce:	232b      	movmi	r3, #43	; 0x2b
 80019d0:	f88d 3053 	strbmi.w	r3, [sp, #83]	; 0x53
 80019d4:	f89a 3000 	ldrb.w	r3, [sl]
 80019d8:	2b2a      	cmp	r3, #42	; 0x2a
 80019da:	d015      	beq.n	8001a08 <_vfiprintf_r+0x13c>
 80019dc:	4654      	mov	r4, sl
 80019de:	2000      	movs	r0, #0
 80019e0:	f04f 0c0a 	mov.w	ip, #10
 80019e4:	9a07      	ldr	r2, [sp, #28]
 80019e6:	4621      	mov	r1, r4
 80019e8:	f811 3b01 	ldrb.w	r3, [r1], #1
 80019ec:	3b30      	subs	r3, #48	; 0x30
 80019ee:	2b09      	cmp	r3, #9
 80019f0:	d94e      	bls.n	8001a90 <_vfiprintf_r+0x1c4>
 80019f2:	b1b0      	cbz	r0, 8001a22 <_vfiprintf_r+0x156>
 80019f4:	9207      	str	r2, [sp, #28]
 80019f6:	e014      	b.n	8001a22 <_vfiprintf_r+0x156>
 80019f8:	eba0 0308 	sub.w	r3, r0, r8
 80019fc:	fa09 f303 	lsl.w	r3, r9, r3
 8001a00:	4313      	orrs	r3, r2
 8001a02:	46a2      	mov	sl, r4
 8001a04:	9304      	str	r3, [sp, #16]
 8001a06:	e7d2      	b.n	80019ae <_vfiprintf_r+0xe2>
 8001a08:	9b03      	ldr	r3, [sp, #12]
 8001a0a:	1d19      	adds	r1, r3, #4
 8001a0c:	681b      	ldr	r3, [r3, #0]
 8001a0e:	9103      	str	r1, [sp, #12]
 8001a10:	2b00      	cmp	r3, #0
 8001a12:	bfbb      	ittet	lt
 8001a14:	425b      	neglt	r3, r3
 8001a16:	f042 0202 	orrlt.w	r2, r2, #2
 8001a1a:	9307      	strge	r3, [sp, #28]
 8001a1c:	9307      	strlt	r3, [sp, #28]
 8001a1e:	bfb8      	it	lt
 8001a20:	9204      	strlt	r2, [sp, #16]
 8001a22:	7823      	ldrb	r3, [r4, #0]
 8001a24:	2b2e      	cmp	r3, #46	; 0x2e
 8001a26:	d10c      	bne.n	8001a42 <_vfiprintf_r+0x176>
 8001a28:	7863      	ldrb	r3, [r4, #1]
 8001a2a:	2b2a      	cmp	r3, #42	; 0x2a
 8001a2c:	d135      	bne.n	8001a9a <_vfiprintf_r+0x1ce>
 8001a2e:	9b03      	ldr	r3, [sp, #12]
 8001a30:	3402      	adds	r4, #2
 8001a32:	1d1a      	adds	r2, r3, #4
 8001a34:	681b      	ldr	r3, [r3, #0]
 8001a36:	9203      	str	r2, [sp, #12]
 8001a38:	2b00      	cmp	r3, #0
 8001a3a:	bfb8      	it	lt
 8001a3c:	f04f 33ff 	movlt.w	r3, #4294967295
 8001a40:	9305      	str	r3, [sp, #20]
 8001a42:	f8df a0e4 	ldr.w	sl, [pc, #228]	; 8001b28 <_vfiprintf_r+0x25c>
 8001a46:	2203      	movs	r2, #3
 8001a48:	4650      	mov	r0, sl
 8001a4a:	7821      	ldrb	r1, [r4, #0]
 8001a4c:	f000 fcfa 	bl	8002444 <memchr>
 8001a50:	b140      	cbz	r0, 8001a64 <_vfiprintf_r+0x198>
 8001a52:	2340      	movs	r3, #64	; 0x40
 8001a54:	eba0 000a 	sub.w	r0, r0, sl
 8001a58:	fa03 f000 	lsl.w	r0, r3, r0
 8001a5c:	9b04      	ldr	r3, [sp, #16]
 8001a5e:	3401      	adds	r4, #1
 8001a60:	4303      	orrs	r3, r0
 8001a62:	9304      	str	r3, [sp, #16]
 8001a64:	f814 1b01 	ldrb.w	r1, [r4], #1
 8001a68:	2206      	movs	r2, #6
 8001a6a:	482c      	ldr	r0, [pc, #176]	; (8001b1c <_vfiprintf_r+0x250>)
 8001a6c:	f88d 1028 	strb.w	r1, [sp, #40]	; 0x28
 8001a70:	f000 fce8 	bl	8002444 <memchr>
 8001a74:	2800      	cmp	r0, #0
 8001a76:	d03f      	beq.n	8001af8 <_vfiprintf_r+0x22c>
 8001a78:	4b29      	ldr	r3, [pc, #164]	; (8001b20 <_vfiprintf_r+0x254>)
 8001a7a:	bb1b      	cbnz	r3, 8001ac4 <_vfiprintf_r+0x1f8>
 8001a7c:	9b03      	ldr	r3, [sp, #12]
 8001a7e:	3307      	adds	r3, #7
 8001a80:	f023 0307 	bic.w	r3, r3, #7
 8001a84:	3308      	adds	r3, #8
 8001a86:	9303      	str	r3, [sp, #12]
 8001a88:	9b09      	ldr	r3, [sp, #36]	; 0x24
 8001a8a:	443b      	add	r3, r7
 8001a8c:	9309      	str	r3, [sp, #36]	; 0x24
 8001a8e:	e767      	b.n	8001960 <_vfiprintf_r+0x94>
 8001a90:	460c      	mov	r4, r1
 8001a92:	2001      	movs	r0, #1
 8001a94:	fb0c 3202 	mla	r2, ip, r2, r3
 8001a98:	e7a5      	b.n	80019e6 <_vfiprintf_r+0x11a>
 8001a9a:	2300      	movs	r3, #0
 8001a9c:	f04f 0c0a 	mov.w	ip, #10
 8001aa0:	4619      	mov	r1, r3
 8001aa2:	3401      	adds	r4, #1
 8001aa4:	9305      	str	r3, [sp, #20]
 8001aa6:	4620      	mov	r0, r4
 8001aa8:	f810 2b01 	ldrb.w	r2, [r0], #1
 8001aac:	3a30      	subs	r2, #48	; 0x30
 8001aae:	2a09      	cmp	r2, #9
 8001ab0:	d903      	bls.n	8001aba <_vfiprintf_r+0x1ee>
 8001ab2:	2b00      	cmp	r3, #0
 8001ab4:	d0c5      	beq.n	8001a42 <_vfiprintf_r+0x176>
 8001ab6:	9105      	str	r1, [sp, #20]
 8001ab8:	e7c3      	b.n	8001a42 <_vfiprintf_r+0x176>
 8001aba:	4604      	mov	r4, r0
 8001abc:	2301      	movs	r3, #1
 8001abe:	fb0c 2101 	mla	r1, ip, r1, r2
 8001ac2:	e7f0      	b.n	8001aa6 <_vfiprintf_r+0x1da>
 8001ac4:	ab03      	add	r3, sp, #12
 8001ac6:	9300      	str	r3, [sp, #0]
 8001ac8:	462a      	mov	r2, r5
 8001aca:	4630      	mov	r0, r6
 8001acc:	4b15      	ldr	r3, [pc, #84]	; (8001b24 <_vfiprintf_r+0x258>)
 8001ace:	a904      	add	r1, sp, #16
 8001ad0:	f3af 8000 	nop.w
 8001ad4:	4607      	mov	r7, r0
 8001ad6:	1c78      	adds	r0, r7, #1
 8001ad8:	d1d6      	bne.n	8001a88 <_vfiprintf_r+0x1bc>
 8001ada:	6e6b      	ldr	r3, [r5, #100]	; 0x64
 8001adc:	07d9      	lsls	r1, r3, #31
 8001ade:	d405      	bmi.n	8001aec <_vfiprintf_r+0x220>
 8001ae0:	89ab      	ldrh	r3, [r5, #12]
 8001ae2:	059a      	lsls	r2, r3, #22
 8001ae4:	d402      	bmi.n	8001aec <_vfiprintf_r+0x220>
 8001ae6:	6da8      	ldr	r0, [r5, #88]	; 0x58
 8001ae8:	f000 fc47 	bl	800237a <__retarget_lock_release_recursive>
 8001aec:	89ab      	ldrh	r3, [r5, #12]
 8001aee:	065b      	lsls	r3, r3, #25
 8001af0:	f53f af12 	bmi.w	8001918 <_vfiprintf_r+0x4c>
 8001af4:	9809      	ldr	r0, [sp, #36]	; 0x24
 8001af6:	e711      	b.n	800191c <_vfiprintf_r+0x50>
 8001af8:	ab03      	add	r3, sp, #12
 8001afa:	9300      	str	r3, [sp, #0]
 8001afc:	462a      	mov	r2, r5
 8001afe:	4630      	mov	r0, r6
 8001b00:	4b08      	ldr	r3, [pc, #32]	; (8001b24 <_vfiprintf_r+0x258>)
 8001b02:	a904      	add	r1, sp, #16
 8001b04:	f000 f882 	bl	8001c0c <_printf_i>
 8001b08:	e7e4      	b.n	8001ad4 <_vfiprintf_r+0x208>
 8001b0a:	bf00      	nop
 8001b0c:	08003320 	.word	0x08003320
 8001b10:	08003340 	.word	0x08003340
 8001b14:	08003300 	.word	0x08003300
 8001b18:	080032ca 	.word	0x080032ca
 8001b1c:	080032d4 	.word	0x080032d4
 8001b20:	00000000 	.word	0x00000000
 8001b24:	080018a7 	.word	0x080018a7
 8001b28:	080032d0 	.word	0x080032d0

08001b2c <_printf_common>:
 8001b2c:	e92d 47f0 	stmdb	sp!, {r4, r5, r6, r7, r8, r9, sl, lr}
 8001b30:	4616      	mov	r6, r2
 8001b32:	4699      	mov	r9, r3
 8001b34:	688a      	ldr	r2, [r1, #8]
 8001b36:	690b      	ldr	r3, [r1, #16]
 8001b38:	4607      	mov	r7, r0
 8001b3a:	4293      	cmp	r3, r2
 8001b3c:	bfb8      	it	lt
 8001b3e:	4613      	movlt	r3, r2
 8001b40:	6033      	str	r3, [r6, #0]
 8001b42:	f891 2043 	ldrb.w	r2, [r1, #67]	; 0x43
 8001b46:	460c      	mov	r4, r1
 8001b48:	f8dd 8020 	ldr.w	r8, [sp, #32]
 8001b4c:	b10a      	cbz	r2, 8001b52 <_printf_common+0x26>
 8001b4e:	3301      	adds	r3, #1
 8001b50:	6033      	str	r3, [r6, #0]
 8001b52:	6823      	ldr	r3, [r4, #0]
 8001b54:	0699      	lsls	r1, r3, #26
 8001b56:	bf42      	ittt	mi
 8001b58:	6833      	ldrmi	r3, [r6, #0]
 8001b5a:	3302      	addmi	r3, #2
 8001b5c:	6033      	strmi	r3, [r6, #0]
 8001b5e:	6825      	ldr	r5, [r4, #0]
 8001b60:	f015 0506 	ands.w	r5, r5, #6
 8001b64:	d106      	bne.n	8001b74 <_printf_common+0x48>
 8001b66:	f104 0a19 	add.w	sl, r4, #25
 8001b6a:	68e3      	ldr	r3, [r4, #12]
 8001b6c:	6832      	ldr	r2, [r6, #0]
 8001b6e:	1a9b      	subs	r3, r3, r2
 8001b70:	42ab      	cmp	r3, r5
 8001b72:	dc28      	bgt.n	8001bc6 <_printf_common+0x9a>
 8001b74:	f894 2043 	ldrb.w	r2, [r4, #67]	; 0x43
 8001b78:	1e13      	subs	r3, r2, #0
 8001b7a:	6822      	ldr	r2, [r4, #0]
 8001b7c:	bf18      	it	ne
 8001b7e:	2301      	movne	r3, #1
 8001b80:	0692      	lsls	r2, r2, #26
 8001b82:	d42d      	bmi.n	8001be0 <_printf_common+0xb4>
 8001b84:	4649      	mov	r1, r9
 8001b86:	4638      	mov	r0, r7
 8001b88:	f104 0243 	add.w	r2, r4, #67	; 0x43
 8001b8c:	47c0      	blx	r8
 8001b8e:	3001      	adds	r0, #1
 8001b90:	d020      	beq.n	8001bd4 <_printf_common+0xa8>
 8001b92:	6823      	ldr	r3, [r4, #0]
 8001b94:	68e5      	ldr	r5, [r4, #12]
 8001b96:	f003 0306 	and.w	r3, r3, #6
 8001b9a:	2b04      	cmp	r3, #4
 8001b9c:	bf18      	it	ne
 8001b9e:	2500      	movne	r5, #0
 8001ba0:	6832      	ldr	r2, [r6, #0]
 8001ba2:	f04f 0600 	mov.w	r6, #0
 8001ba6:	68a3      	ldr	r3, [r4, #8]
 8001ba8:	bf08      	it	eq
 8001baa:	1aad      	subeq	r5, r5, r2
 8001bac:	6922      	ldr	r2, [r4, #16]
 8001bae:	bf08      	it	eq
 8001bb0:	ea25 75e5 	biceq.w	r5, r5, r5, asr #31
 8001bb4:	4293      	cmp	r3, r2
 8001bb6:	bfc4      	itt	gt
 8001bb8:	1a9b      	subgt	r3, r3, r2
 8001bba:	18ed      	addgt	r5, r5, r3
 8001bbc:	341a      	adds	r4, #26
 8001bbe:	42b5      	cmp	r5, r6
 8001bc0:	d11a      	bne.n	8001bf8 <_printf_common+0xcc>
 8001bc2:	2000      	movs	r0, #0
 8001bc4:	e008      	b.n	8001bd8 <_printf_common+0xac>
 8001bc6:	2301      	movs	r3, #1
 8001bc8:	4652      	mov	r2, sl
 8001bca:	4649      	mov	r1, r9
 8001bcc:	4638      	mov	r0, r7
 8001bce:	47c0      	blx	r8
 8001bd0:	3001      	adds	r0, #1
 8001bd2:	d103      	bne.n	8001bdc <_printf_common+0xb0>
 8001bd4:	f04f 30ff 	mov.w	r0, #4294967295
 8001bd8:	e8bd 87f0 	ldmia.w	sp!, {r4, r5, r6, r7, r8, r9, sl, pc}
 8001bdc:	3501      	adds	r5, #1
 8001bde:	e7c4      	b.n	8001b6a <_printf_common+0x3e>
 8001be0:	2030      	movs	r0, #48	; 0x30
 8001be2:	18e1      	adds	r1, r4, r3
 8001be4:	f881 0043 	strb.w	r0, [r1, #67]	; 0x43
 8001be8:	1c5a      	adds	r2, r3, #1
 8001bea:	f894 1045 	ldrb.w	r1, [r4, #69]	; 0x45
 8001bee:	4422      	add	r2, r4
 8001bf0:	3302      	adds	r3, #2
 8001bf2:	f882 1043 	strb.w	r1, [r2, #67]	; 0x43
 8001bf6:	e7c5      	b.n	8001b84 <_printf_common+0x58>
 8001bf8:	2301      	movs	r3, #1
 8001bfa:	4622      	mov	r2, r4
 8001bfc:	4649      	mov	r1, r9
 8001bfe:	4638      	mov	r0, r7
 8001c00:	47c0      	blx	r8
 8001c02:	3001      	adds	r0, #1
 8001c04:	d0e6      	beq.n	8001bd4 <_printf_common+0xa8>
 8001c06:	3601      	adds	r6, #1
 8001c08:	e7d9      	b.n	8001bbe <_printf_common+0x92>
	...

08001c0c <_printf_i>:
 8001c0c:	e92d 47ff 	stmdb	sp!, {r0, r1, r2, r3, r4, r5, r6, r7, r8, r9, sl, lr}
 8001c10:	460c      	mov	r4, r1
 8001c12:	7e27      	ldrb	r7, [r4, #24]
 8001c14:	4691      	mov	r9, r2
 8001c16:	2f78      	cmp	r7, #120	; 0x78
 8001c18:	4680      	mov	r8, r0
 8001c1a:	469a      	mov	sl, r3
 8001c1c:	990c      	ldr	r1, [sp, #48]	; 0x30
 8001c1e:	f104 0243 	add.w	r2, r4, #67	; 0x43
 8001c22:	d807      	bhi.n	8001c34 <_printf_i+0x28>
 8001c24:	2f62      	cmp	r7, #98	; 0x62
 8001c26:	d80a      	bhi.n	8001c3e <_printf_i+0x32>
 8001c28:	2f00      	cmp	r7, #0
 8001c2a:	f000 80d9 	beq.w	8001de0 <_printf_i+0x1d4>
 8001c2e:	2f58      	cmp	r7, #88	; 0x58
 8001c30:	f000 80a4 	beq.w	8001d7c <_printf_i+0x170>
 8001c34:	f104 0642 	add.w	r6, r4, #66	; 0x42
 8001c38:	f884 7042 	strb.w	r7, [r4, #66]	; 0x42
 8001c3c:	e03a      	b.n	8001cb4 <_printf_i+0xa8>
 8001c3e:	f1a7 0363 	sub.w	r3, r7, #99	; 0x63
 8001c42:	2b15      	cmp	r3, #21
 8001c44:	d8f6      	bhi.n	8001c34 <_printf_i+0x28>
 8001c46:	a001      	add	r0, pc, #4	; (adr r0, 8001c4c <_printf_i+0x40>)
 8001c48:	f850 f023 	ldr.w	pc, [r0, r3, lsl #2]
 8001c4c:	08001ca5 	.word	0x08001ca5
 8001c50:	08001cb9 	.word	0x08001cb9
 8001c54:	08001c35 	.word	0x08001c35
 8001c58:	08001c35 	.word	0x08001c35
 8001c5c:	08001c35 	.word	0x08001c35
 8001c60:	08001c35 	.word	0x08001c35
 8001c64:	08001cb9 	.word	0x08001cb9
 8001c68:	08001c35 	.word	0x08001c35
 8001c6c:	08001c35 	.word	0x08001c35
 8001c70:	08001c35 	.word	0x08001c35
 8001c74:	08001c35 	.word	0x08001c35
 8001c78:	08001dc7 	.word	0x08001dc7
 8001c7c:	08001ce9 	.word	0x08001ce9
 8001c80:	08001da9 	.word	0x08001da9
 8001c84:	08001c35 	.word	0x08001c35
 8001c88:	08001c35 	.word	0x08001c35
 8001c8c:	08001de9 	.word	0x08001de9
 8001c90:	08001c35 	.word	0x08001c35
 8001c94:	08001ce9 	.word	0x08001ce9
 8001c98:	08001c35 	.word	0x08001c35
 8001c9c:	08001c35 	.word	0x08001c35
 8001ca0:	08001db1 	.word	0x08001db1
 8001ca4:	680b      	ldr	r3, [r1, #0]
 8001ca6:	f104 0642 	add.w	r6, r4, #66	; 0x42
 8001caa:	1d1a      	adds	r2, r3, #4
 8001cac:	681b      	ldr	r3, [r3, #0]
 8001cae:	600a      	str	r2, [r1, #0]
 8001cb0:	f884 3042 	strb.w	r3, [r4, #66]	; 0x42
 8001cb4:	2301      	movs	r3, #1
 8001cb6:	e0a4      	b.n	8001e02 <_printf_i+0x1f6>
 8001cb8:	6825      	ldr	r5, [r4, #0]
 8001cba:	6808      	ldr	r0, [r1, #0]
 8001cbc:	062e      	lsls	r6, r5, #24
 8001cbe:	f100 0304 	add.w	r3, r0, #4
 8001cc2:	d50a      	bpl.n	8001cda <_printf_i+0xce>
 8001cc4:	6805      	ldr	r5, [r0, #0]
 8001cc6:	600b      	str	r3, [r1, #0]
 8001cc8:	2d00      	cmp	r5, #0
 8001cca:	da03      	bge.n	8001cd4 <_printf_i+0xc8>
 8001ccc:	232d      	movs	r3, #45	; 0x2d
 8001cce:	426d      	negs	r5, r5
 8001cd0:	f884 3043 	strb.w	r3, [r4, #67]	; 0x43
 8001cd4:	230a      	movs	r3, #10
 8001cd6:	485e      	ldr	r0, [pc, #376]	; (8001e50 <_printf_i+0x244>)
 8001cd8:	e019      	b.n	8001d0e <_printf_i+0x102>
 8001cda:	f015 0f40 	tst.w	r5, #64	; 0x40
 8001cde:	6805      	ldr	r5, [r0, #0]
 8001ce0:	600b      	str	r3, [r1, #0]
 8001ce2:	bf18      	it	ne
 8001ce4:	b22d      	sxthne	r5, r5
 8001ce6:	e7ef      	b.n	8001cc8 <_printf_i+0xbc>
 8001ce8:	680b      	ldr	r3, [r1, #0]
 8001cea:	6825      	ldr	r5, [r4, #0]
 8001cec:	1d18      	adds	r0, r3, #4
 8001cee:	6008      	str	r0, [r1, #0]
 8001cf0:	0628      	lsls	r0, r5, #24
 8001cf2:	d501      	bpl.n	8001cf8 <_printf_i+0xec>
 8001cf4:	681d      	ldr	r5, [r3, #0]
 8001cf6:	e002      	b.n	8001cfe <_printf_i+0xf2>
 8001cf8:	0669      	lsls	r1, r5, #25
 8001cfa:	d5fb      	bpl.n	8001cf4 <_printf_i+0xe8>
 8001cfc:	881d      	ldrh	r5, [r3, #0]
 8001cfe:	2f6f      	cmp	r7, #111	; 0x6f
 8001d00:	bf0c      	ite	eq
 8001d02:	2308      	moveq	r3, #8
 8001d04:	230a      	movne	r3, #10
 8001d06:	4852      	ldr	r0, [pc, #328]	; (8001e50 <_printf_i+0x244>)
 8001d08:	2100      	movs	r1, #0
 8001d0a:	f884 1043 	strb.w	r1, [r4, #67]	; 0x43
 8001d0e:	6866      	ldr	r6, [r4, #4]
 8001d10:	2e00      	cmp	r6, #0
 8001d12:	bfa8      	it	ge
 8001d14:	6821      	ldrge	r1, [r4, #0]
 8001d16:	60a6      	str	r6, [r4, #8]
 8001d18:	bfa4      	itt	ge
 8001d1a:	f021 0104 	bicge.w	r1, r1, #4
 8001d1e:	6021      	strge	r1, [r4, #0]
 8001d20:	b90d      	cbnz	r5, 8001d26 <_printf_i+0x11a>
 8001d22:	2e00      	cmp	r6, #0
 8001d24:	d04d      	beq.n	8001dc2 <_printf_i+0x1b6>
 8001d26:	4616      	mov	r6, r2
 8001d28:	fbb5 f1f3 	udiv	r1, r5, r3
 8001d2c:	fb03 5711 	mls	r7, r3, r1, r5
 8001d30:	5dc7      	ldrb	r7, [r0, r7]
 8001d32:	f806 7d01 	strb.w	r7, [r6, #-1]!
 8001d36:	462f      	mov	r7, r5
 8001d38:	42bb      	cmp	r3, r7
 8001d3a:	460d      	mov	r5, r1
 8001d3c:	d9f4      	bls.n	8001d28 <_printf_i+0x11c>
 8001d3e:	2b08      	cmp	r3, #8
 8001d40:	d10b      	bne.n	8001d5a <_printf_i+0x14e>
 8001d42:	6823      	ldr	r3, [r4, #0]
 8001d44:	07df      	lsls	r7, r3, #31
 8001d46:	d508      	bpl.n	8001d5a <_printf_i+0x14e>
 8001d48:	6923      	ldr	r3, [r4, #16]
 8001d4a:	6861      	ldr	r1, [r4, #4]
 8001d4c:	4299      	cmp	r1, r3
 8001d4e:	bfde      	ittt	le
 8001d50:	2330      	movle	r3, #48	; 0x30
 8001d52:	f806 3c01 	strble.w	r3, [r6, #-1]
 8001d56:	f106 36ff 	addle.w	r6, r6, #4294967295
 8001d5a:	1b92      	subs	r2, r2, r6
 8001d5c:	6122      	str	r2, [r4, #16]
 8001d5e:	464b      	mov	r3, r9
 8001d60:	4621      	mov	r1, r4
 8001d62:	4640      	mov	r0, r8
 8001d64:	f8cd a000 	str.w	sl, [sp]
 8001d68:	aa03      	add	r2, sp, #12
 8001d6a:	f7ff fedf 	bl	8001b2c <_printf_common>
 8001d6e:	3001      	adds	r0, #1
 8001d70:	d14c      	bne.n	8001e0c <_printf_i+0x200>
 8001d72:	f04f 30ff 	mov.w	r0, #4294967295
 8001d76:	b004      	add	sp, #16
 8001d78:	e8bd 87f0 	ldmia.w	sp!, {r4, r5, r6, r7, r8, r9, sl, pc}
 8001d7c:	4834      	ldr	r0, [pc, #208]	; (8001e50 <_printf_i+0x244>)
 8001d7e:	f884 7045 	strb.w	r7, [r4, #69]	; 0x45
 8001d82:	680e      	ldr	r6, [r1, #0]
 8001d84:	6823      	ldr	r3, [r4, #0]
 8001d86:	f856 5b04 	ldr.w	r5, [r6], #4
 8001d8a:	061f      	lsls	r7, r3, #24
 8001d8c:	600e      	str	r6, [r1, #0]
 8001d8e:	d514      	bpl.n	8001dba <_printf_i+0x1ae>
 8001d90:	07d9      	lsls	r1, r3, #31
 8001d92:	bf44      	itt	mi
 8001d94:	f043 0320 	orrmi.w	r3, r3, #32
 8001d98:	6023      	strmi	r3, [r4, #0]
 8001d9a:	b91d      	cbnz	r5, 8001da4 <_printf_i+0x198>
 8001d9c:	6823      	ldr	r3, [r4, #0]
 8001d9e:	f023 0320 	bic.w	r3, r3, #32
 8001da2:	6023      	str	r3, [r4, #0]
 8001da4:	2310      	movs	r3, #16
 8001da6:	e7af      	b.n	8001d08 <_printf_i+0xfc>
 8001da8:	6823      	ldr	r3, [r4, #0]
 8001daa:	f043 0320 	orr.w	r3, r3, #32
 8001dae:	6023      	str	r3, [r4, #0]
 8001db0:	2378      	movs	r3, #120	; 0x78
 8001db2:	4828      	ldr	r0, [pc, #160]	; (8001e54 <_printf_i+0x248>)
 8001db4:	f884 3045 	strb.w	r3, [r4, #69]	; 0x45
 8001db8:	e7e3      	b.n	8001d82 <_printf_i+0x176>
 8001dba:	065e      	lsls	r6, r3, #25
 8001dbc:	bf48      	it	mi
 8001dbe:	b2ad      	uxthmi	r5, r5
 8001dc0:	e7e6      	b.n	8001d90 <_printf_i+0x184>
 8001dc2:	4616      	mov	r6, r2
 8001dc4:	e7bb      	b.n	8001d3e <_printf_i+0x132>
 8001dc6:	680b      	ldr	r3, [r1, #0]
 8001dc8:	6826      	ldr	r6, [r4, #0]
 8001dca:	1d1d      	adds	r5, r3, #4
 8001dcc:	6960      	ldr	r0, [r4, #20]
 8001dce:	600d      	str	r5, [r1, #0]
 8001dd0:	0635      	lsls	r5, r6, #24
 8001dd2:	681b      	ldr	r3, [r3, #0]
 8001dd4:	d501      	bpl.n	8001dda <_printf_i+0x1ce>
 8001dd6:	6018      	str	r0, [r3, #0]
 8001dd8:	e002      	b.n	8001de0 <_printf_i+0x1d4>
 8001dda:	0671      	lsls	r1, r6, #25
 8001ddc:	d5fb      	bpl.n	8001dd6 <_printf_i+0x1ca>
 8001dde:	8018      	strh	r0, [r3, #0]
 8001de0:	2300      	movs	r3, #0
 8001de2:	4616      	mov	r6, r2
 8001de4:	6123      	str	r3, [r4, #16]
 8001de6:	e7ba      	b.n	8001d5e <_printf_i+0x152>
 8001de8:	680b      	ldr	r3, [r1, #0]
 8001dea:	1d1a      	adds	r2, r3, #4
 8001dec:	600a      	str	r2, [r1, #0]
 8001dee:	681e      	ldr	r6, [r3, #0]
 8001df0:	2100      	movs	r1, #0
 8001df2:	4630      	mov	r0, r6
 8001df4:	6862      	ldr	r2, [r4, #4]
 8001df6:	f000 fb25 	bl	8002444 <memchr>
 8001dfa:	b108      	cbz	r0, 8001e00 <_printf_i+0x1f4>
 8001dfc:	1b80      	subs	r0, r0, r6
 8001dfe:	6060      	str	r0, [r4, #4]
 8001e00:	6863      	ldr	r3, [r4, #4]
 8001e02:	6123      	str	r3, [r4, #16]
 8001e04:	2300      	movs	r3, #0
 8001e06:	f884 3043 	strb.w	r3, [r4, #67]	; 0x43
 8001e0a:	e7a8      	b.n	8001d5e <_printf_i+0x152>
 8001e0c:	4632      	mov	r2, r6
 8001e0e:	4649      	mov	r1, r9
 8001e10:	4640      	mov	r0, r8
 8001e12:	6923      	ldr	r3, [r4, #16]
 8001e14:	47d0      	blx	sl
 8001e16:	3001      	adds	r0, #1
 8001e18:	d0ab      	beq.n	8001d72 <_printf_i+0x166>
 8001e1a:	6823      	ldr	r3, [r4, #0]
 8001e1c:	079b      	lsls	r3, r3, #30
 8001e1e:	d413      	bmi.n	8001e48 <_printf_i+0x23c>
 8001e20:	68e0      	ldr	r0, [r4, #12]
 8001e22:	9b03      	ldr	r3, [sp, #12]
 8001e24:	4298      	cmp	r0, r3
 8001e26:	bfb8      	it	lt
 8001e28:	4618      	movlt	r0, r3
 8001e2a:	e7a4      	b.n	8001d76 <_printf_i+0x16a>
 8001e2c:	2301      	movs	r3, #1
 8001e2e:	4632      	mov	r2, r6
 8001e30:	4649      	mov	r1, r9
 8001e32:	4640      	mov	r0, r8
 8001e34:	47d0      	blx	sl
 8001e36:	3001      	adds	r0, #1
 8001e38:	d09b      	beq.n	8001d72 <_printf_i+0x166>
 8001e3a:	3501      	adds	r5, #1
 8001e3c:	68e3      	ldr	r3, [r4, #12]
 8001e3e:	9903      	ldr	r1, [sp, #12]
 8001e40:	1a5b      	subs	r3, r3, r1
 8001e42:	42ab      	cmp	r3, r5
 8001e44:	dcf2      	bgt.n	8001e2c <_printf_i+0x220>
 8001e46:	e7eb      	b.n	8001e20 <_printf_i+0x214>
 8001e48:	2500      	movs	r5, #0
 8001e4a:	f104 0619 	add.w	r6, r4, #25
 8001e4e:	e7f5      	b.n	8001e3c <_printf_i+0x230>
 8001e50:	080032db 	.word	0x080032db
 8001e54:	080032ec 	.word	0x080032ec

08001e58 <_sbrk_r>:
 8001e58:	b538      	push	{r3, r4, r5, lr}
 8001e5a:	2300      	movs	r3, #0
 8001e5c:	4d05      	ldr	r5, [pc, #20]	; (8001e74 <_sbrk_r+0x1c>)
 8001e5e:	4604      	mov	r4, r0
 8001e60:	4608      	mov	r0, r1
 8001e62:	602b      	str	r3, [r5, #0]
 8001e64:	f7ff f998 	bl	8001198 <_sbrk>
 8001e68:	1c43      	adds	r3, r0, #1
 8001e6a:	d102      	bne.n	8001e72 <_sbrk_r+0x1a>
 8001e6c:	682b      	ldr	r3, [r5, #0]
 8001e6e:	b103      	cbz	r3, 8001e72 <_sbrk_r+0x1a>
 8001e70:	6023      	str	r3, [r4, #0]
 8001e72:	bd38      	pop	{r3, r4, r5, pc}
 8001e74:	20000154 	.word	0x20000154

08001e78 <__swbuf_r>:
 8001e78:	b5f8      	push	{r3, r4, r5, r6, r7, lr}
 8001e7a:	460e      	mov	r6, r1
 8001e7c:	4614      	mov	r4, r2
 8001e7e:	4605      	mov	r5, r0
 8001e80:	b118      	cbz	r0, 8001e8a <__swbuf_r+0x12>
 8001e82:	6983      	ldr	r3, [r0, #24]
 8001e84:	b90b      	cbnz	r3, 8001e8a <__swbuf_r+0x12>
 8001e86:	f000 f9d9 	bl	800223c <__sinit>
 8001e8a:	4b21      	ldr	r3, [pc, #132]	; (8001f10 <__swbuf_r+0x98>)
 8001e8c:	429c      	cmp	r4, r3
 8001e8e:	d12b      	bne.n	8001ee8 <__swbuf_r+0x70>
 8001e90:	686c      	ldr	r4, [r5, #4]
 8001e92:	69a3      	ldr	r3, [r4, #24]
 8001e94:	60a3      	str	r3, [r4, #8]
 8001e96:	89a3      	ldrh	r3, [r4, #12]
 8001e98:	071a      	lsls	r2, r3, #28
 8001e9a:	d52f      	bpl.n	8001efc <__swbuf_r+0x84>
 8001e9c:	6923      	ldr	r3, [r4, #16]
 8001e9e:	b36b      	cbz	r3, 8001efc <__swbuf_r+0x84>
 8001ea0:	6923      	ldr	r3, [r4, #16]
 8001ea2:	6820      	ldr	r0, [r4, #0]
 8001ea4:	b2f6      	uxtb	r6, r6
 8001ea6:	1ac0      	subs	r0, r0, r3
 8001ea8:	6963      	ldr	r3, [r4, #20]
 8001eaa:	4637      	mov	r7, r6
 8001eac:	4283      	cmp	r3, r0
 8001eae:	dc04      	bgt.n	8001eba <__swbuf_r+0x42>
 8001eb0:	4621      	mov	r1, r4
 8001eb2:	4628      	mov	r0, r5
 8001eb4:	f000 f92e 	bl	8002114 <_fflush_r>
 8001eb8:	bb30      	cbnz	r0, 8001f08 <__swbuf_r+0x90>
 8001eba:	68a3      	ldr	r3, [r4, #8]
 8001ebc:	3001      	adds	r0, #1
 8001ebe:	3b01      	subs	r3, #1
 8001ec0:	60a3      	str	r3, [r4, #8]
 8001ec2:	6823      	ldr	r3, [r4, #0]
 8001ec4:	1c5a      	adds	r2, r3, #1
 8001ec6:	6022      	str	r2, [r4, #0]
 8001ec8:	701e      	strb	r6, [r3, #0]
 8001eca:	6963      	ldr	r3, [r4, #20]
 8001ecc:	4283      	cmp	r3, r0
 8001ece:	d004      	beq.n	8001eda <__swbuf_r+0x62>
 8001ed0:	89a3      	ldrh	r3, [r4, #12]
 8001ed2:	07db      	lsls	r3, r3, #31
 8001ed4:	d506      	bpl.n	8001ee4 <__swbuf_r+0x6c>
 8001ed6:	2e0a      	cmp	r6, #10
 8001ed8:	d104      	bne.n	8001ee4 <__swbuf_r+0x6c>
 8001eda:	4621      	mov	r1, r4
 8001edc:	4628      	mov	r0, r5
 8001ede:	f000 f919 	bl	8002114 <_fflush_r>
 8001ee2:	b988      	cbnz	r0, 8001f08 <__swbuf_r+0x90>
 8001ee4:	4638      	mov	r0, r7
 8001ee6:	bdf8      	pop	{r3, r4, r5, r6, r7, pc}
 8001ee8:	4b0a      	ldr	r3, [pc, #40]	; (8001f14 <__swbuf_r+0x9c>)
 8001eea:	429c      	cmp	r4, r3
 8001eec:	d101      	bne.n	8001ef2 <__swbuf_r+0x7a>
 8001eee:	68ac      	ldr	r4, [r5, #8]
 8001ef0:	e7cf      	b.n	8001e92 <__swbuf_r+0x1a>
 8001ef2:	4b09      	ldr	r3, [pc, #36]	; (8001f18 <__swbuf_r+0xa0>)
 8001ef4:	429c      	cmp	r4, r3
 8001ef6:	bf08      	it	eq
 8001ef8:	68ec      	ldreq	r4, [r5, #12]
 8001efa:	e7ca      	b.n	8001e92 <__swbuf_r+0x1a>
 8001efc:	4621      	mov	r1, r4
 8001efe:	4628      	mov	r0, r5
 8001f00:	f000 f80c 	bl	8001f1c <__swsetup_r>
 8001f04:	2800      	cmp	r0, #0
 8001f06:	d0cb      	beq.n	8001ea0 <__swbuf_r+0x28>
 8001f08:	f04f 37ff 	mov.w	r7, #4294967295
 8001f0c:	e7ea      	b.n	8001ee4 <__swbuf_r+0x6c>
 8001f0e:	bf00      	nop
 8001f10:	08003320 	.word	0x08003320
 8001f14:	08003340 	.word	0x08003340
 8001f18:	08003300 	.word	0x08003300

08001f1c <__swsetup_r>:
 8001f1c:	4b32      	ldr	r3, [pc, #200]	; (8001fe8 <__swsetup_r+0xcc>)
 8001f1e:	b570      	push	{r4, r5, r6, lr}
 8001f20:	681d      	ldr	r5, [r3, #0]
 8001f22:	4606      	mov	r6, r0
 8001f24:	460c      	mov	r4, r1
 8001f26:	b125      	cbz	r5, 8001f32 <__swsetup_r+0x16>
 8001f28:	69ab      	ldr	r3, [r5, #24]
 8001f2a:	b913      	cbnz	r3, 8001f32 <__swsetup_r+0x16>
 8001f2c:	4628      	mov	r0, r5
 8001f2e:	f000 f985 	bl	800223c <__sinit>
 8001f32:	4b2e      	ldr	r3, [pc, #184]	; (8001fec <__swsetup_r+0xd0>)
 8001f34:	429c      	cmp	r4, r3
 8001f36:	d10f      	bne.n	8001f58 <__swsetup_r+0x3c>
 8001f38:	686c      	ldr	r4, [r5, #4]
 8001f3a:	89a3      	ldrh	r3, [r4, #12]
 8001f3c:	f9b4 200c 	ldrsh.w	r2, [r4, #12]
 8001f40:	0719      	lsls	r1, r3, #28
 8001f42:	d42c      	bmi.n	8001f9e <__swsetup_r+0x82>
 8001f44:	06dd      	lsls	r5, r3, #27
 8001f46:	d411      	bmi.n	8001f6c <__swsetup_r+0x50>
 8001f48:	2309      	movs	r3, #9
 8001f4a:	6033      	str	r3, [r6, #0]
 8001f4c:	f042 0340 	orr.w	r3, r2, #64	; 0x40
 8001f50:	f04f 30ff 	mov.w	r0, #4294967295
 8001f54:	81a3      	strh	r3, [r4, #12]
 8001f56:	e03e      	b.n	8001fd6 <__swsetup_r+0xba>
 8001f58:	4b25      	ldr	r3, [pc, #148]	; (8001ff0 <__swsetup_r+0xd4>)
 8001f5a:	429c      	cmp	r4, r3
 8001f5c:	d101      	bne.n	8001f62 <__swsetup_r+0x46>
 8001f5e:	68ac      	ldr	r4, [r5, #8]
 8001f60:	e7eb      	b.n	8001f3a <__swsetup_r+0x1e>
 8001f62:	4b24      	ldr	r3, [pc, #144]	; (8001ff4 <__swsetup_r+0xd8>)
 8001f64:	429c      	cmp	r4, r3
 8001f66:	bf08      	it	eq
 8001f68:	68ec      	ldreq	r4, [r5, #12]
 8001f6a:	e7e6      	b.n	8001f3a <__swsetup_r+0x1e>
 8001f6c:	0758      	lsls	r0, r3, #29
 8001f6e:	d512      	bpl.n	8001f96 <__swsetup_r+0x7a>
 8001f70:	6b61      	ldr	r1, [r4, #52]	; 0x34
 8001f72:	b141      	cbz	r1, 8001f86 <__swsetup_r+0x6a>
 8001f74:	f104 0344 	add.w	r3, r4, #68	; 0x44
 8001f78:	4299      	cmp	r1, r3
 8001f7a:	d002      	beq.n	8001f82 <__swsetup_r+0x66>
 8001f7c:	4630      	mov	r0, r6
 8001f7e:	f7ff fbd7 	bl	8001730 <_free_r>
 8001f82:	2300      	movs	r3, #0
 8001f84:	6363      	str	r3, [r4, #52]	; 0x34
 8001f86:	89a3      	ldrh	r3, [r4, #12]
 8001f88:	f023 0324 	bic.w	r3, r3, #36	; 0x24
 8001f8c:	81a3      	strh	r3, [r4, #12]
 8001f8e:	2300      	movs	r3, #0
 8001f90:	6063      	str	r3, [r4, #4]
 8001f92:	6923      	ldr	r3, [r4, #16]
 8001f94:	6023      	str	r3, [r4, #0]
 8001f96:	89a3      	ldrh	r3, [r4, #12]
 8001f98:	f043 0308 	orr.w	r3, r3, #8
 8001f9c:	81a3      	strh	r3, [r4, #12]
 8001f9e:	6923      	ldr	r3, [r4, #16]
 8001fa0:	b94b      	cbnz	r3, 8001fb6 <__swsetup_r+0x9a>
 8001fa2:	89a3      	ldrh	r3, [r4, #12]
 8001fa4:	f403 7320 	and.w	r3, r3, #640	; 0x280
 8001fa8:	f5b3 7f00 	cmp.w	r3, #512	; 0x200
 8001fac:	d003      	beq.n	8001fb6 <__swsetup_r+0x9a>
 8001fae:	4621      	mov	r1, r4
 8001fb0:	4630      	mov	r0, r6
 8001fb2:	f000 fa07 	bl	80023c4 <__smakebuf_r>
 8001fb6:	89a0      	ldrh	r0, [r4, #12]
 8001fb8:	f9b4 200c 	ldrsh.w	r2, [r4, #12]
 8001fbc:	f010 0301 	ands.w	r3, r0, #1
 8001fc0:	d00a      	beq.n	8001fd8 <__swsetup_r+0xbc>
 8001fc2:	2300      	movs	r3, #0
 8001fc4:	60a3      	str	r3, [r4, #8]
 8001fc6:	6963      	ldr	r3, [r4, #20]
 8001fc8:	425b      	negs	r3, r3
 8001fca:	61a3      	str	r3, [r4, #24]
 8001fcc:	6923      	ldr	r3, [r4, #16]
 8001fce:	b943      	cbnz	r3, 8001fe2 <__swsetup_r+0xc6>
 8001fd0:	f010 0080 	ands.w	r0, r0, #128	; 0x80
 8001fd4:	d1ba      	bne.n	8001f4c <__swsetup_r+0x30>
 8001fd6:	bd70      	pop	{r4, r5, r6, pc}
 8001fd8:	0781      	lsls	r1, r0, #30
 8001fda:	bf58      	it	pl
 8001fdc:	6963      	ldrpl	r3, [r4, #20]
 8001fde:	60a3      	str	r3, [r4, #8]
 8001fe0:	e7f4      	b.n	8001fcc <__swsetup_r+0xb0>
 8001fe2:	2000      	movs	r0, #0
 8001fe4:	e7f7      	b.n	8001fd6 <__swsetup_r+0xba>
 8001fe6:	bf00      	nop
 8001fe8:	20000020 	.word	0x20000020
 8001fec:	08003320 	.word	0x08003320
 8001ff0:	08003340 	.word	0x08003340
 8001ff4:	08003300 	.word	0x08003300

08001ff8 <abort>:
 8001ff8:	2006      	movs	r0, #6
 8001ffa:	b508      	push	{r3, lr}
 8001ffc:	f000 fa64 	bl	80024c8 <raise>
 8002000:	2001      	movs	r0, #1
 8002002:	f7ff f856 	bl	80010b2 <_exit>
	...

08002008 <__sflush_r>:
 8002008:	898a      	ldrh	r2, [r1, #12]
 800200a:	e92d 41f0 	stmdb	sp!, {r4, r5, r6, r7, r8, lr}
 800200e:	4605      	mov	r5, r0
 8002010:	0710      	lsls	r0, r2, #28
 8002012:	460c      	mov	r4, r1
 8002014:	d458      	bmi.n	80020c8 <__sflush_r+0xc0>
 8002016:	684b      	ldr	r3, [r1, #4]
 8002018:	2b00      	cmp	r3, #0
 800201a:	dc05      	bgt.n	8002028 <__sflush_r+0x20>
 800201c:	6c0b      	ldr	r3, [r1, #64]	; 0x40
 800201e:	2b00      	cmp	r3, #0
 8002020:	dc02      	bgt.n	8002028 <__sflush_r+0x20>
 8002022:	2000      	movs	r0, #0
 8002024:	e8bd 81f0 	ldmia.w	sp!, {r4, r5, r6, r7, r8, pc}
 8002028:	6ae6      	ldr	r6, [r4, #44]	; 0x2c
 800202a:	2e00      	cmp	r6, #0
 800202c:	d0f9      	beq.n	8002022 <__sflush_r+0x1a>
 800202e:	2300      	movs	r3, #0
 8002030:	f412 5280 	ands.w	r2, r2, #4096	; 0x1000
 8002034:	682f      	ldr	r7, [r5, #0]
 8002036:	602b      	str	r3, [r5, #0]
 8002038:	d032      	beq.n	80020a0 <__sflush_r+0x98>
 800203a:	6d60      	ldr	r0, [r4, #84]	; 0x54
 800203c:	89a3      	ldrh	r3, [r4, #12]
 800203e:	075a      	lsls	r2, r3, #29
 8002040:	d505      	bpl.n	800204e <__sflush_r+0x46>
 8002042:	6863      	ldr	r3, [r4, #4]
 8002044:	1ac0      	subs	r0, r0, r3
 8002046:	6b63      	ldr	r3, [r4, #52]	; 0x34
 8002048:	b10b      	cbz	r3, 800204e <__sflush_r+0x46>
 800204a:	6c23      	ldr	r3, [r4, #64]	; 0x40
 800204c:	1ac0      	subs	r0, r0, r3
 800204e:	2300      	movs	r3, #0
 8002050:	4602      	mov	r2, r0
 8002052:	6ae6      	ldr	r6, [r4, #44]	; 0x2c
 8002054:	4628      	mov	r0, r5
 8002056:	6a21      	ldr	r1, [r4, #32]
 8002058:	47b0      	blx	r6
 800205a:	1c43      	adds	r3, r0, #1
 800205c:	89a3      	ldrh	r3, [r4, #12]
 800205e:	d106      	bne.n	800206e <__sflush_r+0x66>
 8002060:	6829      	ldr	r1, [r5, #0]
 8002062:	291d      	cmp	r1, #29
 8002064:	d82c      	bhi.n	80020c0 <__sflush_r+0xb8>
 8002066:	4a2a      	ldr	r2, [pc, #168]	; (8002110 <__sflush_r+0x108>)
 8002068:	40ca      	lsrs	r2, r1
 800206a:	07d6      	lsls	r6, r2, #31
 800206c:	d528      	bpl.n	80020c0 <__sflush_r+0xb8>
 800206e:	2200      	movs	r2, #0
 8002070:	6062      	str	r2, [r4, #4]
 8002072:	6922      	ldr	r2, [r4, #16]
 8002074:	04d9      	lsls	r1, r3, #19
 8002076:	6022      	str	r2, [r4, #0]
 8002078:	d504      	bpl.n	8002084 <__sflush_r+0x7c>
 800207a:	1c42      	adds	r2, r0, #1
 800207c:	d101      	bne.n	8002082 <__sflush_r+0x7a>
 800207e:	682b      	ldr	r3, [r5, #0]
 8002080:	b903      	cbnz	r3, 8002084 <__sflush_r+0x7c>
 8002082:	6560      	str	r0, [r4, #84]	; 0x54
 8002084:	6b61      	ldr	r1, [r4, #52]	; 0x34
 8002086:	602f      	str	r7, [r5, #0]
 8002088:	2900      	cmp	r1, #0
 800208a:	d0ca      	beq.n	8002022 <__sflush_r+0x1a>
 800208c:	f104 0344 	add.w	r3, r4, #68	; 0x44
 8002090:	4299      	cmp	r1, r3
 8002092:	d002      	beq.n	800209a <__sflush_r+0x92>
 8002094:	4628      	mov	r0, r5
 8002096:	f7ff fb4b 	bl	8001730 <_free_r>
 800209a:	2000      	movs	r0, #0
 800209c:	6360      	str	r0, [r4, #52]	; 0x34
 800209e:	e7c1      	b.n	8002024 <__sflush_r+0x1c>
 80020a0:	6a21      	ldr	r1, [r4, #32]
 80020a2:	2301      	movs	r3, #1
 80020a4:	4628      	mov	r0, r5
 80020a6:	47b0      	blx	r6
 80020a8:	1c41      	adds	r1, r0, #1
 80020aa:	d1c7      	bne.n	800203c <__sflush_r+0x34>
 80020ac:	682b      	ldr	r3, [r5, #0]
 80020ae:	2b00      	cmp	r3, #0
 80020b0:	d0c4      	beq.n	800203c <__sflush_r+0x34>
 80020b2:	2b1d      	cmp	r3, #29
 80020b4:	d001      	beq.n	80020ba <__sflush_r+0xb2>
 80020b6:	2b16      	cmp	r3, #22
 80020b8:	d101      	bne.n	80020be <__sflush_r+0xb6>
 80020ba:	602f      	str	r7, [r5, #0]
 80020bc:	e7b1      	b.n	8002022 <__sflush_r+0x1a>
 80020be:	89a3      	ldrh	r3, [r4, #12]
 80020c0:	f043 0340 	orr.w	r3, r3, #64	; 0x40
 80020c4:	81a3      	strh	r3, [r4, #12]
 80020c6:	e7ad      	b.n	8002024 <__sflush_r+0x1c>
 80020c8:	690f      	ldr	r7, [r1, #16]
 80020ca:	2f00      	cmp	r7, #0
 80020cc:	d0a9      	beq.n	8002022 <__sflush_r+0x1a>
 80020ce:	0793      	lsls	r3, r2, #30
 80020d0:	bf18      	it	ne
 80020d2:	2300      	movne	r3, #0
 80020d4:	680e      	ldr	r6, [r1, #0]
 80020d6:	bf08      	it	eq
 80020d8:	694b      	ldreq	r3, [r1, #20]
 80020da:	eba6 0807 	sub.w	r8, r6, r7
 80020de:	600f      	str	r7, [r1, #0]
 80020e0:	608b      	str	r3, [r1, #8]
 80020e2:	f1b8 0f00 	cmp.w	r8, #0
 80020e6:	dd9c      	ble.n	8002022 <__sflush_r+0x1a>
 80020e8:	4643      	mov	r3, r8
 80020ea:	463a      	mov	r2, r7
 80020ec:	4628      	mov	r0, r5
 80020ee:	6a21      	ldr	r1, [r4, #32]
 80020f0:	6aa6      	ldr	r6, [r4, #40]	; 0x28
 80020f2:	47b0      	blx	r6
 80020f4:	2800      	cmp	r0, #0
 80020f6:	dc06      	bgt.n	8002106 <__sflush_r+0xfe>
 80020f8:	89a3      	ldrh	r3, [r4, #12]
 80020fa:	f04f 30ff 	mov.w	r0, #4294967295
 80020fe:	f043 0340 	orr.w	r3, r3, #64	; 0x40
 8002102:	81a3      	strh	r3, [r4, #12]
 8002104:	e78e      	b.n	8002024 <__sflush_r+0x1c>
 8002106:	4407      	add	r7, r0
 8002108:	eba8 0800 	sub.w	r8, r8, r0
 800210c:	e7e9      	b.n	80020e2 <__sflush_r+0xda>
 800210e:	bf00      	nop
 8002110:	20400001 	.word	0x20400001

08002114 <_fflush_r>:
 8002114:	b538      	push	{r3, r4, r5, lr}
 8002116:	690b      	ldr	r3, [r1, #16]
 8002118:	4605      	mov	r5, r0
 800211a:	460c      	mov	r4, r1
 800211c:	b913      	cbnz	r3, 8002124 <_fflush_r+0x10>
 800211e:	2500      	movs	r5, #0
 8002120:	4628      	mov	r0, r5
 8002122:	bd38      	pop	{r3, r4, r5, pc}
 8002124:	b118      	cbz	r0, 800212e <_fflush_r+0x1a>
 8002126:	6983      	ldr	r3, [r0, #24]
 8002128:	b90b      	cbnz	r3, 800212e <_fflush_r+0x1a>
 800212a:	f000 f887 	bl	800223c <__sinit>
 800212e:	4b14      	ldr	r3, [pc, #80]	; (8002180 <_fflush_r+0x6c>)
 8002130:	429c      	cmp	r4, r3
 8002132:	d11b      	bne.n	800216c <_fflush_r+0x58>
 8002134:	686c      	ldr	r4, [r5, #4]
 8002136:	f9b4 300c 	ldrsh.w	r3, [r4, #12]
 800213a:	2b00      	cmp	r3, #0
 800213c:	d0ef      	beq.n	800211e <_fflush_r+0xa>
 800213e:	6e62      	ldr	r2, [r4, #100]	; 0x64
 8002140:	07d0      	lsls	r0, r2, #31
 8002142:	d404      	bmi.n	800214e <_fflush_r+0x3a>
 8002144:	0599      	lsls	r1, r3, #22
 8002146:	d402      	bmi.n	800214e <_fflush_r+0x3a>
 8002148:	6da0      	ldr	r0, [r4, #88]	; 0x58
 800214a:	f000 f915 	bl	8002378 <__retarget_lock_acquire_recursive>
 800214e:	4628      	mov	r0, r5
 8002150:	4621      	mov	r1, r4
 8002152:	f7ff ff59 	bl	8002008 <__sflush_r>
 8002156:	6e63      	ldr	r3, [r4, #100]	; 0x64
 8002158:	4605      	mov	r5, r0
 800215a:	07da      	lsls	r2, r3, #31
 800215c:	d4e0      	bmi.n	8002120 <_fflush_r+0xc>
 800215e:	89a3      	ldrh	r3, [r4, #12]
 8002160:	059b      	lsls	r3, r3, #22
 8002162:	d4dd      	bmi.n	8002120 <_fflush_r+0xc>
 8002164:	6da0      	ldr	r0, [r4, #88]	; 0x58
 8002166:	f000 f908 	bl	800237a <__retarget_lock_release_recursive>
 800216a:	e7d9      	b.n	8002120 <_fflush_r+0xc>
 800216c:	4b05      	ldr	r3, [pc, #20]	; (8002184 <_fflush_r+0x70>)
 800216e:	429c      	cmp	r4, r3
 8002170:	d101      	bne.n	8002176 <_fflush_r+0x62>
 8002172:	68ac      	ldr	r4, [r5, #8]
 8002174:	e7df      	b.n	8002136 <_fflush_r+0x22>
 8002176:	4b04      	ldr	r3, [pc, #16]	; (8002188 <_fflush_r+0x74>)
 8002178:	429c      	cmp	r4, r3
 800217a:	bf08      	it	eq
 800217c:	68ec      	ldreq	r4, [r5, #12]
 800217e:	e7da      	b.n	8002136 <_fflush_r+0x22>
 8002180:	08003320 	.word	0x08003320
 8002184:	08003340 	.word	0x08003340
 8002188:	08003300 	.word	0x08003300

0800218c <std>:
 800218c:	2300      	movs	r3, #0
 800218e:	b510      	push	{r4, lr}
 8002190:	4604      	mov	r4, r0
 8002192:	e9c0 3300 	strd	r3, r3, [r0]
 8002196:	e9c0 3304 	strd	r3, r3, [r0, #16]
 800219a:	6083      	str	r3, [r0, #8]
 800219c:	8181      	strh	r1, [r0, #12]
 800219e:	6643      	str	r3, [r0, #100]	; 0x64
 80021a0:	81c2      	strh	r2, [r0, #14]
 80021a2:	6183      	str	r3, [r0, #24]
 80021a4:	4619      	mov	r1, r3
 80021a6:	2208      	movs	r2, #8
 80021a8:	305c      	adds	r0, #92	; 0x5c
 80021aa:	f7ff fa13 	bl	80015d4 <memset>
 80021ae:	4b05      	ldr	r3, [pc, #20]	; (80021c4 <std+0x38>)
 80021b0:	6224      	str	r4, [r4, #32]
 80021b2:	6263      	str	r3, [r4, #36]	; 0x24
 80021b4:	4b04      	ldr	r3, [pc, #16]	; (80021c8 <std+0x3c>)
 80021b6:	62a3      	str	r3, [r4, #40]	; 0x28
 80021b8:	4b04      	ldr	r3, [pc, #16]	; (80021cc <std+0x40>)
 80021ba:	62e3      	str	r3, [r4, #44]	; 0x2c
 80021bc:	4b04      	ldr	r3, [pc, #16]	; (80021d0 <std+0x44>)
 80021be:	6323      	str	r3, [r4, #48]	; 0x30
 80021c0:	bd10      	pop	{r4, pc}
 80021c2:	bf00      	nop
 80021c4:	08002501 	.word	0x08002501
 80021c8:	08002523 	.word	0x08002523
 80021cc:	0800255b 	.word	0x0800255b
 80021d0:	0800257f 	.word	0x0800257f

080021d4 <_cleanup_r>:
 80021d4:	4901      	ldr	r1, [pc, #4]	; (80021dc <_cleanup_r+0x8>)
 80021d6:	f000 b8af 	b.w	8002338 <_fwalk_reent>
 80021da:	bf00      	nop
 80021dc:	08002115 	.word	0x08002115

080021e0 <__sfmoreglue>:
 80021e0:	b570      	push	{r4, r5, r6, lr}
 80021e2:	2568      	movs	r5, #104	; 0x68
 80021e4:	1e4a      	subs	r2, r1, #1
 80021e6:	4355      	muls	r5, r2
 80021e8:	460e      	mov	r6, r1
 80021ea:	f105 0174 	add.w	r1, r5, #116	; 0x74
 80021ee:	f7ff faeb 	bl	80017c8 <_malloc_r>
 80021f2:	4604      	mov	r4, r0
 80021f4:	b140      	cbz	r0, 8002208 <__sfmoreglue+0x28>
 80021f6:	2100      	movs	r1, #0
 80021f8:	e9c0 1600 	strd	r1, r6, [r0]
 80021fc:	300c      	adds	r0, #12
 80021fe:	60a0      	str	r0, [r4, #8]
 8002200:	f105 0268 	add.w	r2, r5, #104	; 0x68
 8002204:	f7ff f9e6 	bl	80015d4 <memset>
 8002208:	4620      	mov	r0, r4
 800220a:	bd70      	pop	{r4, r5, r6, pc}

0800220c <__sfp_lock_acquire>:
 800220c:	4801      	ldr	r0, [pc, #4]	; (8002214 <__sfp_lock_acquire+0x8>)
 800220e:	f000 b8b3 	b.w	8002378 <__retarget_lock_acquire_recursive>
 8002212:	bf00      	nop
 8002214:	20000150 	.word	0x20000150

08002218 <__sfp_lock_release>:
 8002218:	4801      	ldr	r0, [pc, #4]	; (8002220 <__sfp_lock_release+0x8>)
 800221a:	f000 b8ae 	b.w	800237a <__retarget_lock_release_recursive>
 800221e:	bf00      	nop
 8002220:	20000150 	.word	0x20000150

08002224 <__sinit_lock_acquire>:
 8002224:	4801      	ldr	r0, [pc, #4]	; (800222c <__sinit_lock_acquire+0x8>)
 8002226:	f000 b8a7 	b.w	8002378 <__retarget_lock_acquire_recursive>
 800222a:	bf00      	nop
 800222c:	2000014b 	.word	0x2000014b

08002230 <__sinit_lock_release>:
 8002230:	4801      	ldr	r0, [pc, #4]	; (8002238 <__sinit_lock_release+0x8>)
 8002232:	f000 b8a2 	b.w	800237a <__retarget_lock_release_recursive>
 8002236:	bf00      	nop
 8002238:	2000014b 	.word	0x2000014b

0800223c <__sinit>:
 800223c:	b510      	push	{r4, lr}
 800223e:	4604      	mov	r4, r0
 8002240:	f7ff fff0 	bl	8002224 <__sinit_lock_acquire>
 8002244:	69a3      	ldr	r3, [r4, #24]
 8002246:	b11b      	cbz	r3, 8002250 <__sinit+0x14>
 8002248:	e8bd 4010 	ldmia.w	sp!, {r4, lr}
 800224c:	f7ff bff0 	b.w	8002230 <__sinit_lock_release>
 8002250:	e9c4 3312 	strd	r3, r3, [r4, #72]	; 0x48
 8002254:	6523      	str	r3, [r4, #80]	; 0x50
 8002256:	4b13      	ldr	r3, [pc, #76]	; (80022a4 <__sinit+0x68>)
 8002258:	4a13      	ldr	r2, [pc, #76]	; (80022a8 <__sinit+0x6c>)
 800225a:	681b      	ldr	r3, [r3, #0]
 800225c:	62a2      	str	r2, [r4, #40]	; 0x28
 800225e:	42a3      	cmp	r3, r4
 8002260:	bf08      	it	eq
 8002262:	2301      	moveq	r3, #1
 8002264:	4620      	mov	r0, r4
 8002266:	bf08      	it	eq
 8002268:	61a3      	streq	r3, [r4, #24]
 800226a:	f000 f81f 	bl	80022ac <__sfp>
 800226e:	6060      	str	r0, [r4, #4]
 8002270:	4620      	mov	r0, r4
 8002272:	f000 f81b 	bl	80022ac <__sfp>
 8002276:	60a0      	str	r0, [r4, #8]
 8002278:	4620      	mov	r0, r4
 800227a:	f000 f817 	bl	80022ac <__sfp>
 800227e:	2200      	movs	r2, #0
 8002280:	2104      	movs	r1, #4
 8002282:	60e0      	str	r0, [r4, #12]
 8002284:	6860      	ldr	r0, [r4, #4]
 8002286:	f7ff ff81 	bl	800218c <std>
 800228a:	2201      	movs	r2, #1
 800228c:	2109      	movs	r1, #9
 800228e:	68a0      	ldr	r0, [r4, #8]
 8002290:	f7ff ff7c 	bl	800218c <std>
 8002294:	2202      	movs	r2, #2
 8002296:	2112      	movs	r1, #18
 8002298:	68e0      	ldr	r0, [r4, #12]
 800229a:	f7ff ff77 	bl	800218c <std>
 800229e:	2301      	movs	r3, #1
 80022a0:	61a3      	str	r3, [r4, #24]
 80022a2:	e7d1      	b.n	8002248 <__sinit+0xc>
 80022a4:	08003214 	.word	0x08003214
 80022a8:	080021d5 	.word	0x080021d5

080022ac <__sfp>:
 80022ac:	b5f8      	push	{r3, r4, r5, r6, r7, lr}
 80022ae:	4607      	mov	r7, r0
 80022b0:	f7ff ffac 	bl	800220c <__sfp_lock_acquire>
 80022b4:	4b1e      	ldr	r3, [pc, #120]	; (8002330 <__sfp+0x84>)
 80022b6:	681e      	ldr	r6, [r3, #0]
 80022b8:	69b3      	ldr	r3, [r6, #24]
 80022ba:	b913      	cbnz	r3, 80022c2 <__sfp+0x16>
 80022bc:	4630      	mov	r0, r6
 80022be:	f7ff ffbd 	bl	800223c <__sinit>
 80022c2:	3648      	adds	r6, #72	; 0x48
 80022c4:	e9d6 3401 	ldrd	r3, r4, [r6, #4]
 80022c8:	3b01      	subs	r3, #1
 80022ca:	d503      	bpl.n	80022d4 <__sfp+0x28>
 80022cc:	6833      	ldr	r3, [r6, #0]
 80022ce:	b30b      	cbz	r3, 8002314 <__sfp+0x68>
 80022d0:	6836      	ldr	r6, [r6, #0]
 80022d2:	e7f7      	b.n	80022c4 <__sfp+0x18>
 80022d4:	f9b4 500c 	ldrsh.w	r5, [r4, #12]
 80022d8:	b9d5      	cbnz	r5, 8002310 <__sfp+0x64>
 80022da:	4b16      	ldr	r3, [pc, #88]	; (8002334 <__sfp+0x88>)
 80022dc:	f104 0058 	add.w	r0, r4, #88	; 0x58
 80022e0:	60e3      	str	r3, [r4, #12]
 80022e2:	6665      	str	r5, [r4, #100]	; 0x64
 80022e4:	f000 f847 	bl	8002376 <__retarget_lock_init_recursive>
 80022e8:	f7ff ff96 	bl	8002218 <__sfp_lock_release>
 80022ec:	2208      	movs	r2, #8
 80022ee:	4629      	mov	r1, r5
 80022f0:	e9c4 5501 	strd	r5, r5, [r4, #4]
 80022f4:	e9c4 5504 	strd	r5, r5, [r4, #16]
 80022f8:	6025      	str	r5, [r4, #0]
 80022fa:	61a5      	str	r5, [r4, #24]
 80022fc:	f104 005c 	add.w	r0, r4, #92	; 0x5c
 8002300:	f7ff f968 	bl	80015d4 <memset>
 8002304:	e9c4 550d 	strd	r5, r5, [r4, #52]	; 0x34
 8002308:	e9c4 5512 	strd	r5, r5, [r4, #72]	; 0x48
 800230c:	4620      	mov	r0, r4
 800230e:	bdf8      	pop	{r3, r4, r5, r6, r7, pc}
 8002310:	3468      	adds	r4, #104	; 0x68
 8002312:	e7d9      	b.n	80022c8 <__sfp+0x1c>
 8002314:	2104      	movs	r1, #4
 8002316:	4638      	mov	r0, r7
 8002318:	f7ff ff62 	bl	80021e0 <__sfmoreglue>
 800231c:	4604      	mov	r4, r0
 800231e:	6030      	str	r0, [r6, #0]
 8002320:	2800      	cmp	r0, #0
 8002322:	d1d5      	bne.n	80022d0 <__sfp+0x24>
 8002324:	f7ff ff78 	bl	8002218 <__sfp_lock_release>
 8002328:	230c      	movs	r3, #12
 800232a:	603b      	str	r3, [r7, #0]
 800232c:	e7ee      	b.n	800230c <__sfp+0x60>
 800232e:	bf00      	nop
 8002330:	08003214 	.word	0x08003214
 8002334:	ffff0001 	.word	0xffff0001

08002338 <_fwalk_reent>:
 8002338:	e92d 43f8 	stmdb	sp!, {r3, r4, r5, r6, r7, r8, r9, lr}
 800233c:	4606      	mov	r6, r0
 800233e:	4688      	mov	r8, r1
 8002340:	2700      	movs	r7, #0
 8002342:	f100 0448 	add.w	r4, r0, #72	; 0x48
 8002346:	e9d4 9501 	ldrd	r9, r5, [r4, #4]
 800234a:	f1b9 0901 	subs.w	r9, r9, #1
 800234e:	d505      	bpl.n	800235c <_fwalk_reent+0x24>
 8002350:	6824      	ldr	r4, [r4, #0]
 8002352:	2c00      	cmp	r4, #0
 8002354:	d1f7      	bne.n	8002346 <_fwalk_reent+0xe>
 8002356:	4638      	mov	r0, r7
 8002358:	e8bd 83f8 	ldmia.w	sp!, {r3, r4, r5, r6, r7, r8, r9, pc}
 800235c:	89ab      	ldrh	r3, [r5, #12]
 800235e:	2b01      	cmp	r3, #1
 8002360:	d907      	bls.n	8002372 <_fwalk_reent+0x3a>
 8002362:	f9b5 300e 	ldrsh.w	r3, [r5, #14]
 8002366:	3301      	adds	r3, #1
 8002368:	d003      	beq.n	8002372 <_fwalk_reent+0x3a>
 800236a:	4629      	mov	r1, r5
 800236c:	4630      	mov	r0, r6
 800236e:	47c0      	blx	r8
 8002370:	4307      	orrs	r7, r0
 8002372:	3568      	adds	r5, #104	; 0x68
 8002374:	e7e9      	b.n	800234a <_fwalk_reent+0x12>

08002376 <__retarget_lock_init_recursive>:
 8002376:	4770      	bx	lr

08002378 <__retarget_lock_acquire_recursive>:
 8002378:	4770      	bx	lr

0800237a <__retarget_lock_release_recursive>:
 800237a:	4770      	bx	lr

0800237c <__swhatbuf_r>:
 800237c:	b570      	push	{r4, r5, r6, lr}
 800237e:	460e      	mov	r6, r1
 8002380:	f9b1 100e 	ldrsh.w	r1, [r1, #14]
 8002384:	4614      	mov	r4, r2
 8002386:	2900      	cmp	r1, #0
 8002388:	461d      	mov	r5, r3
 800238a:	b096      	sub	sp, #88	; 0x58
 800238c:	da07      	bge.n	800239e <__swhatbuf_r+0x22>
 800238e:	2300      	movs	r3, #0
 8002390:	602b      	str	r3, [r5, #0]
 8002392:	89b3      	ldrh	r3, [r6, #12]
 8002394:	061a      	lsls	r2, r3, #24
 8002396:	d410      	bmi.n	80023ba <__swhatbuf_r+0x3e>
 8002398:	f44f 6380 	mov.w	r3, #1024	; 0x400
 800239c:	e00e      	b.n	80023bc <__swhatbuf_r+0x40>
 800239e:	466a      	mov	r2, sp
 80023a0:	f000 f914 	bl	80025cc <_fstat_r>
 80023a4:	2800      	cmp	r0, #0
 80023a6:	dbf2      	blt.n	800238e <__swhatbuf_r+0x12>
 80023a8:	9a01      	ldr	r2, [sp, #4]
 80023aa:	f402 4270 	and.w	r2, r2, #61440	; 0xf000
 80023ae:	f5a2 5300 	sub.w	r3, r2, #8192	; 0x2000
 80023b2:	425a      	negs	r2, r3
 80023b4:	415a      	adcs	r2, r3
 80023b6:	602a      	str	r2, [r5, #0]
 80023b8:	e7ee      	b.n	8002398 <__swhatbuf_r+0x1c>
 80023ba:	2340      	movs	r3, #64	; 0x40
 80023bc:	2000      	movs	r0, #0
 80023be:	6023      	str	r3, [r4, #0]
 80023c0:	b016      	add	sp, #88	; 0x58
 80023c2:	bd70      	pop	{r4, r5, r6, pc}

080023c4 <__smakebuf_r>:
 80023c4:	898b      	ldrh	r3, [r1, #12]
 80023c6:	b573      	push	{r0, r1, r4, r5, r6, lr}
 80023c8:	079d      	lsls	r5, r3, #30
 80023ca:	4606      	mov	r6, r0
 80023cc:	460c      	mov	r4, r1
 80023ce:	d507      	bpl.n	80023e0 <__smakebuf_r+0x1c>
 80023d0:	f104 0347 	add.w	r3, r4, #71	; 0x47
 80023d4:	6023      	str	r3, [r4, #0]
 80023d6:	6123      	str	r3, [r4, #16]
 80023d8:	2301      	movs	r3, #1
 80023da:	6163      	str	r3, [r4, #20]
 80023dc:	b002      	add	sp, #8
 80023de:	bd70      	pop	{r4, r5, r6, pc}
 80023e0:	466a      	mov	r2, sp
 80023e2:	ab01      	add	r3, sp, #4
 80023e4:	f7ff ffca 	bl	800237c <__swhatbuf_r>
 80023e8:	9900      	ldr	r1, [sp, #0]
 80023ea:	4605      	mov	r5, r0
 80023ec:	4630      	mov	r0, r6
 80023ee:	f7ff f9eb 	bl	80017c8 <_malloc_r>
 80023f2:	b948      	cbnz	r0, 8002408 <__smakebuf_r+0x44>
 80023f4:	f9b4 300c 	ldrsh.w	r3, [r4, #12]
 80023f8:	059a      	lsls	r2, r3, #22
 80023fa:	d4ef      	bmi.n	80023dc <__smakebuf_r+0x18>
 80023fc:	f023 0303 	bic.w	r3, r3, #3
 8002400:	f043 0302 	orr.w	r3, r3, #2
 8002404:	81a3      	strh	r3, [r4, #12]
 8002406:	e7e3      	b.n	80023d0 <__smakebuf_r+0xc>
 8002408:	4b0d      	ldr	r3, [pc, #52]	; (8002440 <__smakebuf_r+0x7c>)
 800240a:	62b3      	str	r3, [r6, #40]	; 0x28
 800240c:	89a3      	ldrh	r3, [r4, #12]
 800240e:	6020      	str	r0, [r4, #0]
 8002410:	f043 0380 	orr.w	r3, r3, #128	; 0x80
 8002414:	81a3      	strh	r3, [r4, #12]
 8002416:	9b00      	ldr	r3, [sp, #0]
 8002418:	6120      	str	r0, [r4, #16]
 800241a:	6163      	str	r3, [r4, #20]
 800241c:	9b01      	ldr	r3, [sp, #4]
 800241e:	b15b      	cbz	r3, 8002438 <__smakebuf_r+0x74>
 8002420:	4630      	mov	r0, r6
 8002422:	f9b4 100e 	ldrsh.w	r1, [r4, #14]
 8002426:	f000 f8e3 	bl	80025f0 <_isatty_r>
 800242a:	b128      	cbz	r0, 8002438 <__smakebuf_r+0x74>
 800242c:	89a3      	ldrh	r3, [r4, #12]
 800242e:	f023 0303 	bic.w	r3, r3, #3
 8002432:	f043 0301 	orr.w	r3, r3, #1
 8002436:	81a3      	strh	r3, [r4, #12]
 8002438:	89a0      	ldrh	r0, [r4, #12]
 800243a:	4305      	orrs	r5, r0
 800243c:	81a5      	strh	r5, [r4, #12]
 800243e:	e7cd      	b.n	80023dc <__smakebuf_r+0x18>
 8002440:	080021d5 	.word	0x080021d5

08002444 <memchr>:
 8002444:	4603      	mov	r3, r0
 8002446:	b510      	push	{r4, lr}
 8002448:	b2c9      	uxtb	r1, r1
 800244a:	4402      	add	r2, r0
 800244c:	4293      	cmp	r3, r2
 800244e:	4618      	mov	r0, r3
 8002450:	d101      	bne.n	8002456 <memchr+0x12>
 8002452:	2000      	movs	r0, #0
 8002454:	e003      	b.n	800245e <memchr+0x1a>
 8002456:	7804      	ldrb	r4, [r0, #0]
 8002458:	3301      	adds	r3, #1
 800245a:	428c      	cmp	r4, r1
 800245c:	d1f6      	bne.n	800244c <memchr+0x8>
 800245e:	bd10      	pop	{r4, pc}

08002460 <__malloc_lock>:
 8002460:	4801      	ldr	r0, [pc, #4]	; (8002468 <__malloc_lock+0x8>)
 8002462:	f7ff bf89 	b.w	8002378 <__retarget_lock_acquire_recursive>
 8002466:	bf00      	nop
 8002468:	2000014c 	.word	0x2000014c

0800246c <__malloc_unlock>:
 800246c:	4801      	ldr	r0, [pc, #4]	; (8002474 <__malloc_unlock+0x8>)
 800246e:	f7ff bf84 	b.w	800237a <__retarget_lock_release_recursive>
 8002472:	bf00      	nop
 8002474:	2000014c 	.word	0x2000014c

08002478 <_raise_r>:
 8002478:	291f      	cmp	r1, #31
 800247a:	b538      	push	{r3, r4, r5, lr}
 800247c:	4604      	mov	r4, r0
 800247e:	460d      	mov	r5, r1
 8002480:	d904      	bls.n	800248c <_raise_r+0x14>
 8002482:	2316      	movs	r3, #22
 8002484:	6003      	str	r3, [r0, #0]
 8002486:	f04f 30ff 	mov.w	r0, #4294967295
 800248a:	bd38      	pop	{r3, r4, r5, pc}
 800248c:	6c42      	ldr	r2, [r0, #68]	; 0x44
 800248e:	b112      	cbz	r2, 8002496 <_raise_r+0x1e>
 8002490:	f852 3021 	ldr.w	r3, [r2, r1, lsl #2]
 8002494:	b94b      	cbnz	r3, 80024aa <_raise_r+0x32>
 8002496:	4620      	mov	r0, r4
 8002498:	f000 f830 	bl	80024fc <_getpid_r>
 800249c:	462a      	mov	r2, r5
 800249e:	4601      	mov	r1, r0
 80024a0:	4620      	mov	r0, r4
 80024a2:	e8bd 4038 	ldmia.w	sp!, {r3, r4, r5, lr}
 80024a6:	f000 b817 	b.w	80024d8 <_kill_r>
 80024aa:	2b01      	cmp	r3, #1
 80024ac:	d00a      	beq.n	80024c4 <_raise_r+0x4c>
 80024ae:	1c59      	adds	r1, r3, #1
 80024b0:	d103      	bne.n	80024ba <_raise_r+0x42>
 80024b2:	2316      	movs	r3, #22
 80024b4:	6003      	str	r3, [r0, #0]
 80024b6:	2001      	movs	r0, #1
 80024b8:	e7e7      	b.n	800248a <_raise_r+0x12>
 80024ba:	2400      	movs	r4, #0
 80024bc:	4628      	mov	r0, r5
 80024be:	f842 4025 	str.w	r4, [r2, r5, lsl #2]
 80024c2:	4798      	blx	r3
 80024c4:	2000      	movs	r0, #0
 80024c6:	e7e0      	b.n	800248a <_raise_r+0x12>

080024c8 <raise>:
 80024c8:	4b02      	ldr	r3, [pc, #8]	; (80024d4 <raise+0xc>)
 80024ca:	4601      	mov	r1, r0
 80024cc:	6818      	ldr	r0, [r3, #0]
 80024ce:	f7ff bfd3 	b.w	8002478 <_raise_r>
 80024d2:	bf00      	nop
 80024d4:	20000020 	.word	0x20000020

080024d8 <_kill_r>:
 80024d8:	b538      	push	{r3, r4, r5, lr}
 80024da:	2300      	movs	r3, #0
 80024dc:	4d06      	ldr	r5, [pc, #24]	; (80024f8 <_kill_r+0x20>)
 80024de:	4604      	mov	r4, r0
 80024e0:	4608      	mov	r0, r1
 80024e2:	4611      	mov	r1, r2
 80024e4:	602b      	str	r3, [r5, #0]
 80024e6:	f7fe fdd4 	bl	8001092 <_kill>
 80024ea:	1c43      	adds	r3, r0, #1
 80024ec:	d102      	bne.n	80024f4 <_kill_r+0x1c>
 80024ee:	682b      	ldr	r3, [r5, #0]
 80024f0:	b103      	cbz	r3, 80024f4 <_kill_r+0x1c>
 80024f2:	6023      	str	r3, [r4, #0]
 80024f4:	bd38      	pop	{r3, r4, r5, pc}
 80024f6:	bf00      	nop
 80024f8:	20000154 	.word	0x20000154

080024fc <_getpid_r>:
 80024fc:	f7fe bdc2 	b.w	8001084 <_getpid>

08002500 <__sread>:
 8002500:	b510      	push	{r4, lr}
 8002502:	460c      	mov	r4, r1
 8002504:	f9b1 100e 	ldrsh.w	r1, [r1, #14]
 8002508:	f000 f894 	bl	8002634 <_read_r>
 800250c:	2800      	cmp	r0, #0
 800250e:	bfab      	itete	ge
 8002510:	6d63      	ldrge	r3, [r4, #84]	; 0x54
 8002512:	89a3      	ldrhlt	r3, [r4, #12]
 8002514:	181b      	addge	r3, r3, r0
 8002516:	f423 5380 	biclt.w	r3, r3, #4096	; 0x1000
 800251a:	bfac      	ite	ge
 800251c:	6563      	strge	r3, [r4, #84]	; 0x54
 800251e:	81a3      	strhlt	r3, [r4, #12]
 8002520:	bd10      	pop	{r4, pc}

08002522 <__swrite>:
 8002522:	e92d 41f0 	stmdb	sp!, {r4, r5, r6, r7, r8, lr}
 8002526:	461f      	mov	r7, r3
 8002528:	898b      	ldrh	r3, [r1, #12]
 800252a:	4605      	mov	r5, r0
 800252c:	05db      	lsls	r3, r3, #23
 800252e:	460c      	mov	r4, r1
 8002530:	4616      	mov	r6, r2
 8002532:	d505      	bpl.n	8002540 <__swrite+0x1e>
 8002534:	2302      	movs	r3, #2
 8002536:	2200      	movs	r2, #0
 8002538:	f9b1 100e 	ldrsh.w	r1, [r1, #14]
 800253c:	f000 f868 	bl	8002610 <_lseek_r>
 8002540:	89a3      	ldrh	r3, [r4, #12]
 8002542:	4632      	mov	r2, r6
 8002544:	f423 5380 	bic.w	r3, r3, #4096	; 0x1000
 8002548:	81a3      	strh	r3, [r4, #12]
 800254a:	4628      	mov	r0, r5
 800254c:	463b      	mov	r3, r7
 800254e:	f9b4 100e 	ldrsh.w	r1, [r4, #14]
 8002552:	e8bd 41f0 	ldmia.w	sp!, {r4, r5, r6, r7, r8, lr}
 8002556:	f000 b817 	b.w	8002588 <_write_r>

0800255a <__sseek>:
 800255a:	b510      	push	{r4, lr}
 800255c:	460c      	mov	r4, r1
 800255e:	f9b1 100e 	ldrsh.w	r1, [r1, #14]
 8002562:	f000 f855 	bl	8002610 <_lseek_r>
 8002566:	1c43      	adds	r3, r0, #1
 8002568:	89a3      	ldrh	r3, [r4, #12]
 800256a:	bf15      	itete	ne
 800256c:	6560      	strne	r0, [r4, #84]	; 0x54
 800256e:	f423 5380 	biceq.w	r3, r3, #4096	; 0x1000
 8002572:	f443 5380 	orrne.w	r3, r3, #4096	; 0x1000
 8002576:	81a3      	strheq	r3, [r4, #12]
 8002578:	bf18      	it	ne
 800257a:	81a3      	strhne	r3, [r4, #12]
 800257c:	bd10      	pop	{r4, pc}

0800257e <__sclose>:
 800257e:	f9b1 100e 	ldrsh.w	r1, [r1, #14]
 8002582:	f000 b813 	b.w	80025ac <_close_r>
	...

08002588 <_write_r>:
 8002588:	b538      	push	{r3, r4, r5, lr}
 800258a:	4604      	mov	r4, r0
 800258c:	4608      	mov	r0, r1
 800258e:	4611      	mov	r1, r2
 8002590:	2200      	movs	r2, #0
 8002592:	4d05      	ldr	r5, [pc, #20]	; (80025a8 <_write_r+0x20>)
 8002594:	602a      	str	r2, [r5, #0]
 8002596:	461a      	mov	r2, r3
 8002598:	f7fe fdb2 	bl	8001100 <_write>
 800259c:	1c43      	adds	r3, r0, #1
 800259e:	d102      	bne.n	80025a6 <_write_r+0x1e>
 80025a0:	682b      	ldr	r3, [r5, #0]
 80025a2:	b103      	cbz	r3, 80025a6 <_write_r+0x1e>
 80025a4:	6023      	str	r3, [r4, #0]
 80025a6:	bd38      	pop	{r3, r4, r5, pc}
 80025a8:	20000154 	.word	0x20000154

080025ac <_close_r>:
 80025ac:	b538      	push	{r3, r4, r5, lr}
 80025ae:	2300      	movs	r3, #0
 80025b0:	4d05      	ldr	r5, [pc, #20]	; (80025c8 <_close_r+0x1c>)
 80025b2:	4604      	mov	r4, r0
 80025b4:	4608      	mov	r0, r1
 80025b6:	602b      	str	r3, [r5, #0]
 80025b8:	f7fe fdbe 	bl	8001138 <_close>
 80025bc:	1c43      	adds	r3, r0, #1
 80025be:	d102      	bne.n	80025c6 <_close_r+0x1a>
 80025c0:	682b      	ldr	r3, [r5, #0]
 80025c2:	b103      	cbz	r3, 80025c6 <_close_r+0x1a>
 80025c4:	6023      	str	r3, [r4, #0]
 80025c6:	bd38      	pop	{r3, r4, r5, pc}
 80025c8:	20000154 	.word	0x20000154

080025cc <_fstat_r>:
 80025cc:	b538      	push	{r3, r4, r5, lr}
 80025ce:	2300      	movs	r3, #0
 80025d0:	4d06      	ldr	r5, [pc, #24]	; (80025ec <_fstat_r+0x20>)
 80025d2:	4604      	mov	r4, r0
 80025d4:	4608      	mov	r0, r1
 80025d6:	4611      	mov	r1, r2
 80025d8:	602b      	str	r3, [r5, #0]
 80025da:	f7fe fdb8 	bl	800114e <_fstat>
 80025de:	1c43      	adds	r3, r0, #1
 80025e0:	d102      	bne.n	80025e8 <_fstat_r+0x1c>
 80025e2:	682b      	ldr	r3, [r5, #0]
 80025e4:	b103      	cbz	r3, 80025e8 <_fstat_r+0x1c>
 80025e6:	6023      	str	r3, [r4, #0]
 80025e8:	bd38      	pop	{r3, r4, r5, pc}
 80025ea:	bf00      	nop
 80025ec:	20000154 	.word	0x20000154

080025f0 <_isatty_r>:
 80025f0:	b538      	push	{r3, r4, r5, lr}
 80025f2:	2300      	movs	r3, #0
 80025f4:	4d05      	ldr	r5, [pc, #20]	; (800260c <_isatty_r+0x1c>)
 80025f6:	4604      	mov	r4, r0
 80025f8:	4608      	mov	r0, r1
 80025fa:	602b      	str	r3, [r5, #0]
 80025fc:	f7fe fdb6 	bl	800116c <_isatty>
 8002600:	1c43      	adds	r3, r0, #1
 8002602:	d102      	bne.n	800260a <_isatty_r+0x1a>
 8002604:	682b      	ldr	r3, [r5, #0]
 8002606:	b103      	cbz	r3, 800260a <_isatty_r+0x1a>
 8002608:	6023      	str	r3, [r4, #0]
 800260a:	bd38      	pop	{r3, r4, r5, pc}
 800260c:	20000154 	.word	0x20000154

08002610 <_lseek_r>:
 8002610:	b538      	push	{r3, r4, r5, lr}
 8002612:	4604      	mov	r4, r0
 8002614:	4608      	mov	r0, r1
 8002616:	4611      	mov	r1, r2
 8002618:	2200      	movs	r2, #0
 800261a:	4d05      	ldr	r5, [pc, #20]	; (8002630 <_lseek_r+0x20>)
 800261c:	602a      	str	r2, [r5, #0]
 800261e:	461a      	mov	r2, r3
 8002620:	f7fe fdae 	bl	8001180 <_lseek>
 8002624:	1c43      	adds	r3, r0, #1
 8002626:	d102      	bne.n	800262e <_lseek_r+0x1e>
 8002628:	682b      	ldr	r3, [r5, #0]
 800262a:	b103      	cbz	r3, 800262e <_lseek_r+0x1e>
 800262c:	6023      	str	r3, [r4, #0]
 800262e:	bd38      	pop	{r3, r4, r5, pc}
 8002630:	20000154 	.word	0x20000154

08002634 <_read_r>:
 8002634:	b538      	push	{r3, r4, r5, lr}
 8002636:	4604      	mov	r4, r0
 8002638:	4608      	mov	r0, r1
 800263a:	4611      	mov	r1, r2
 800263c:	2200      	movs	r2, #0
 800263e:	4d05      	ldr	r5, [pc, #20]	; (8002654 <_read_r+0x20>)
 8002640:	602a      	str	r2, [r5, #0]
 8002642:	461a      	mov	r2, r3
 8002644:	f7fe fd3f 	bl	80010c6 <_read>
 8002648:	1c43      	adds	r3, r0, #1
 800264a:	d102      	bne.n	8002652 <_read_r+0x1e>
 800264c:	682b      	ldr	r3, [r5, #0]
 800264e:	b103      	cbz	r3, 8002652 <_read_r+0x1e>
 8002650:	6023      	str	r3, [r4, #0]
 8002652:	bd38      	pop	{r3, r4, r5, pc}
 8002654:	20000154 	.word	0x20000154

08002658 <sinf>:
 8002658:	b507      	push	{r0, r1, r2, lr}
 800265a:	4a19      	ldr	r2, [pc, #100]	; (80026c0 <sinf+0x68>)
 800265c:	f020 4300 	bic.w	r3, r0, #2147483648	; 0x80000000
 8002660:	4293      	cmp	r3, r2
 8002662:	4601      	mov	r1, r0
 8002664:	dc04      	bgt.n	8002670 <sinf+0x18>
 8002666:	2200      	movs	r2, #0
 8002668:	2100      	movs	r1, #0
 800266a:	f000 fcbf 	bl	8002fec <__kernel_sinf>
 800266e:	e004      	b.n	800267a <sinf+0x22>
 8002670:	f1b3 4fff 	cmp.w	r3, #2139095040	; 0x7f800000
 8002674:	db04      	blt.n	8002680 <sinf+0x28>
 8002676:	f7fd fd6d 	bl	8000154 <__aeabi_fsub>
 800267a:	b003      	add	sp, #12
 800267c:	f85d fb04 	ldr.w	pc, [sp], #4
 8002680:	4669      	mov	r1, sp
 8002682:	f000 f81f 	bl	80026c4 <__ieee754_rem_pio2f>
 8002686:	f000 0003 	and.w	r0, r0, #3
 800268a:	2801      	cmp	r0, #1
 800268c:	d006      	beq.n	800269c <sinf+0x44>
 800268e:	2802      	cmp	r0, #2
 8002690:	d009      	beq.n	80026a6 <sinf+0x4e>
 8002692:	b980      	cbnz	r0, 80026b6 <sinf+0x5e>
 8002694:	2201      	movs	r2, #1
 8002696:	9901      	ldr	r1, [sp, #4]
 8002698:	9800      	ldr	r0, [sp, #0]
 800269a:	e7e6      	b.n	800266a <sinf+0x12>
 800269c:	9901      	ldr	r1, [sp, #4]
 800269e:	9800      	ldr	r0, [sp, #0]
 80026a0:	f000 f96e 	bl	8002980 <__kernel_cosf>
 80026a4:	e7e9      	b.n	800267a <sinf+0x22>
 80026a6:	2201      	movs	r2, #1
 80026a8:	9901      	ldr	r1, [sp, #4]
 80026aa:	9800      	ldr	r0, [sp, #0]
 80026ac:	f000 fc9e 	bl	8002fec <__kernel_sinf>
 80026b0:	f100 4000 	add.w	r0, r0, #2147483648	; 0x80000000
 80026b4:	e7e1      	b.n	800267a <sinf+0x22>
 80026b6:	9901      	ldr	r1, [sp, #4]
 80026b8:	9800      	ldr	r0, [sp, #0]
 80026ba:	f000 f961 	bl	8002980 <__kernel_cosf>
 80026be:	e7f7      	b.n	80026b0 <sinf+0x58>
 80026c0:	3f490fd8 	.word	0x3f490fd8

080026c4 <__ieee754_rem_pio2f>:
 80026c4:	e92d 4ff0 	stmdb	sp!, {r4, r5, r6, r7, r8, r9, sl, fp, lr}
 80026c8:	4aa0      	ldr	r2, [pc, #640]	; (800294c <__ieee754_rem_pio2f+0x288>)
 80026ca:	f020 4600 	bic.w	r6, r0, #2147483648	; 0x80000000
 80026ce:	4296      	cmp	r6, r2
 80026d0:	460c      	mov	r4, r1
 80026d2:	4682      	mov	sl, r0
 80026d4:	b087      	sub	sp, #28
 80026d6:	dc04      	bgt.n	80026e2 <__ieee754_rem_pio2f+0x1e>
 80026d8:	2300      	movs	r3, #0
 80026da:	6008      	str	r0, [r1, #0]
 80026dc:	604b      	str	r3, [r1, #4]
 80026de:	2500      	movs	r5, #0
 80026e0:	e01a      	b.n	8002718 <__ieee754_rem_pio2f+0x54>
 80026e2:	4a9b      	ldr	r2, [pc, #620]	; (8002950 <__ieee754_rem_pio2f+0x28c>)
 80026e4:	4296      	cmp	r6, r2
 80026e6:	dc4b      	bgt.n	8002780 <__ieee754_rem_pio2f+0xbc>
 80026e8:	2800      	cmp	r0, #0
 80026ea:	499a      	ldr	r1, [pc, #616]	; (8002954 <__ieee754_rem_pio2f+0x290>)
 80026ec:	4f9a      	ldr	r7, [pc, #616]	; (8002958 <__ieee754_rem_pio2f+0x294>)
 80026ee:	f026 060f 	bic.w	r6, r6, #15
 80026f2:	dd23      	ble.n	800273c <__ieee754_rem_pio2f+0x78>
 80026f4:	f7fd fd2e 	bl	8000154 <__aeabi_fsub>
 80026f8:	42be      	cmp	r6, r7
 80026fa:	4605      	mov	r5, r0
 80026fc:	d010      	beq.n	8002720 <__ieee754_rem_pio2f+0x5c>
 80026fe:	4997      	ldr	r1, [pc, #604]	; (800295c <__ieee754_rem_pio2f+0x298>)
 8002700:	f7fd fd28 	bl	8000154 <__aeabi_fsub>
 8002704:	4601      	mov	r1, r0
 8002706:	6020      	str	r0, [r4, #0]
 8002708:	4628      	mov	r0, r5
 800270a:	f7fd fd23 	bl	8000154 <__aeabi_fsub>
 800270e:	4993      	ldr	r1, [pc, #588]	; (800295c <__ieee754_rem_pio2f+0x298>)
 8002710:	f7fd fd20 	bl	8000154 <__aeabi_fsub>
 8002714:	2501      	movs	r5, #1
 8002716:	6060      	str	r0, [r4, #4]
 8002718:	4628      	mov	r0, r5
 800271a:	b007      	add	sp, #28
 800271c:	e8bd 8ff0 	ldmia.w	sp!, {r4, r5, r6, r7, r8, r9, sl, fp, pc}
 8002720:	498f      	ldr	r1, [pc, #572]	; (8002960 <__ieee754_rem_pio2f+0x29c>)
 8002722:	f7fd fd17 	bl	8000154 <__aeabi_fsub>
 8002726:	498f      	ldr	r1, [pc, #572]	; (8002964 <__ieee754_rem_pio2f+0x2a0>)
 8002728:	4605      	mov	r5, r0
 800272a:	f7fd fd13 	bl	8000154 <__aeabi_fsub>
 800272e:	4601      	mov	r1, r0
 8002730:	6020      	str	r0, [r4, #0]
 8002732:	4628      	mov	r0, r5
 8002734:	f7fd fd0e 	bl	8000154 <__aeabi_fsub>
 8002738:	498a      	ldr	r1, [pc, #552]	; (8002964 <__ieee754_rem_pio2f+0x2a0>)
 800273a:	e7e9      	b.n	8002710 <__ieee754_rem_pio2f+0x4c>
 800273c:	f7fd fd0c 	bl	8000158 <__addsf3>
 8002740:	42be      	cmp	r6, r7
 8002742:	4605      	mov	r5, r0
 8002744:	d00e      	beq.n	8002764 <__ieee754_rem_pio2f+0xa0>
 8002746:	4985      	ldr	r1, [pc, #532]	; (800295c <__ieee754_rem_pio2f+0x298>)
 8002748:	f7fd fd06 	bl	8000158 <__addsf3>
 800274c:	4601      	mov	r1, r0
 800274e:	6020      	str	r0, [r4, #0]
 8002750:	4628      	mov	r0, r5
 8002752:	f7fd fcff 	bl	8000154 <__aeabi_fsub>
 8002756:	4981      	ldr	r1, [pc, #516]	; (800295c <__ieee754_rem_pio2f+0x298>)
 8002758:	f7fd fcfe 	bl	8000158 <__addsf3>
 800275c:	f04f 35ff 	mov.w	r5, #4294967295
 8002760:	6060      	str	r0, [r4, #4]
 8002762:	e7d9      	b.n	8002718 <__ieee754_rem_pio2f+0x54>
 8002764:	497e      	ldr	r1, [pc, #504]	; (8002960 <__ieee754_rem_pio2f+0x29c>)
 8002766:	f7fd fcf7 	bl	8000158 <__addsf3>
 800276a:	497e      	ldr	r1, [pc, #504]	; (8002964 <__ieee754_rem_pio2f+0x2a0>)
 800276c:	4605      	mov	r5, r0
 800276e:	f7fd fcf3 	bl	8000158 <__addsf3>
 8002772:	4601      	mov	r1, r0
 8002774:	6020      	str	r0, [r4, #0]
 8002776:	4628      	mov	r0, r5
 8002778:	f7fd fcec 	bl	8000154 <__aeabi_fsub>
 800277c:	4979      	ldr	r1, [pc, #484]	; (8002964 <__ieee754_rem_pio2f+0x2a0>)
 800277e:	e7eb      	b.n	8002758 <__ieee754_rem_pio2f+0x94>
 8002780:	4a79      	ldr	r2, [pc, #484]	; (8002968 <__ieee754_rem_pio2f+0x2a4>)
 8002782:	4296      	cmp	r6, r2
 8002784:	f300 8091 	bgt.w	80028aa <__ieee754_rem_pio2f+0x1e6>
 8002788:	f000 fca6 	bl	80030d8 <fabsf>
 800278c:	4977      	ldr	r1, [pc, #476]	; (800296c <__ieee754_rem_pio2f+0x2a8>)
 800278e:	4607      	mov	r7, r0
 8002790:	f7fd fdea 	bl	8000368 <__aeabi_fmul>
 8002794:	f04f 517c 	mov.w	r1, #1056964608	; 0x3f000000
 8002798:	f7fd fcde 	bl	8000158 <__addsf3>
 800279c:	f7fd ffaa 	bl	80006f4 <__aeabi_f2iz>
 80027a0:	4605      	mov	r5, r0
 80027a2:	f7fd fd8d 	bl	80002c0 <__aeabi_i2f>
 80027a6:	496b      	ldr	r1, [pc, #428]	; (8002954 <__ieee754_rem_pio2f+0x290>)
 80027a8:	4681      	mov	r9, r0
 80027aa:	f7fd fddd 	bl	8000368 <__aeabi_fmul>
 80027ae:	4601      	mov	r1, r0
 80027b0:	4638      	mov	r0, r7
 80027b2:	f7fd fccf 	bl	8000154 <__aeabi_fsub>
 80027b6:	4969      	ldr	r1, [pc, #420]	; (800295c <__ieee754_rem_pio2f+0x298>)
 80027b8:	4680      	mov	r8, r0
 80027ba:	4648      	mov	r0, r9
 80027bc:	f7fd fdd4 	bl	8000368 <__aeabi_fmul>
 80027c0:	2d1f      	cmp	r5, #31
 80027c2:	4607      	mov	r7, r0
 80027c4:	dc0c      	bgt.n	80027e0 <__ieee754_rem_pio2f+0x11c>
 80027c6:	4a6a      	ldr	r2, [pc, #424]	; (8002970 <__ieee754_rem_pio2f+0x2ac>)
 80027c8:	1e69      	subs	r1, r5, #1
 80027ca:	f852 2021 	ldr.w	r2, [r2, r1, lsl #2]
 80027ce:	f026 03ff 	bic.w	r3, r6, #255	; 0xff
 80027d2:	4293      	cmp	r3, r2
 80027d4:	d004      	beq.n	80027e0 <__ieee754_rem_pio2f+0x11c>
 80027d6:	4639      	mov	r1, r7
 80027d8:	4640      	mov	r0, r8
 80027da:	f7fd fcbb 	bl	8000154 <__aeabi_fsub>
 80027de:	e00b      	b.n	80027f8 <__ieee754_rem_pio2f+0x134>
 80027e0:	4639      	mov	r1, r7
 80027e2:	4640      	mov	r0, r8
 80027e4:	f7fd fcb6 	bl	8000154 <__aeabi_fsub>
 80027e8:	f3c0 53c7 	ubfx	r3, r0, #23, #8
 80027ec:	ea4f 5be6 	mov.w	fp, r6, asr #23
 80027f0:	ebc3 56d6 	rsb	r6, r3, r6, lsr #23
 80027f4:	2e08      	cmp	r6, #8
 80027f6:	dc01      	bgt.n	80027fc <__ieee754_rem_pio2f+0x138>
 80027f8:	6020      	str	r0, [r4, #0]
 80027fa:	e026      	b.n	800284a <__ieee754_rem_pio2f+0x186>
 80027fc:	4958      	ldr	r1, [pc, #352]	; (8002960 <__ieee754_rem_pio2f+0x29c>)
 80027fe:	4648      	mov	r0, r9
 8002800:	f7fd fdb2 	bl	8000368 <__aeabi_fmul>
 8002804:	4607      	mov	r7, r0
 8002806:	4601      	mov	r1, r0
 8002808:	4640      	mov	r0, r8
 800280a:	f7fd fca3 	bl	8000154 <__aeabi_fsub>
 800280e:	4601      	mov	r1, r0
 8002810:	4606      	mov	r6, r0
 8002812:	4640      	mov	r0, r8
 8002814:	f7fd fc9e 	bl	8000154 <__aeabi_fsub>
 8002818:	4639      	mov	r1, r7
 800281a:	f7fd fc9b 	bl	8000154 <__aeabi_fsub>
 800281e:	4607      	mov	r7, r0
 8002820:	4950      	ldr	r1, [pc, #320]	; (8002964 <__ieee754_rem_pio2f+0x2a0>)
 8002822:	4648      	mov	r0, r9
 8002824:	f7fd fda0 	bl	8000368 <__aeabi_fmul>
 8002828:	4639      	mov	r1, r7
 800282a:	f7fd fc93 	bl	8000154 <__aeabi_fsub>
 800282e:	4601      	mov	r1, r0
 8002830:	4607      	mov	r7, r0
 8002832:	4630      	mov	r0, r6
 8002834:	f7fd fc8e 	bl	8000154 <__aeabi_fsub>
 8002838:	f3c0 53c7 	ubfx	r3, r0, #23, #8
 800283c:	ebab 0b03 	sub.w	fp, fp, r3
 8002840:	f1bb 0f19 	cmp.w	fp, #25
 8002844:	dc16      	bgt.n	8002874 <__ieee754_rem_pio2f+0x1b0>
 8002846:	46b0      	mov	r8, r6
 8002848:	6020      	str	r0, [r4, #0]
 800284a:	6826      	ldr	r6, [r4, #0]
 800284c:	4640      	mov	r0, r8
 800284e:	4631      	mov	r1, r6
 8002850:	f7fd fc80 	bl	8000154 <__aeabi_fsub>
 8002854:	4639      	mov	r1, r7
 8002856:	f7fd fc7d 	bl	8000154 <__aeabi_fsub>
 800285a:	f1ba 0f00 	cmp.w	sl, #0
 800285e:	6060      	str	r0, [r4, #4]
 8002860:	f6bf af5a 	bge.w	8002718 <__ieee754_rem_pio2f+0x54>
 8002864:	f106 4600 	add.w	r6, r6, #2147483648	; 0x80000000
 8002868:	f100 4000 	add.w	r0, r0, #2147483648	; 0x80000000
 800286c:	6026      	str	r6, [r4, #0]
 800286e:	6060      	str	r0, [r4, #4]
 8002870:	426d      	negs	r5, r5
 8002872:	e751      	b.n	8002718 <__ieee754_rem_pio2f+0x54>
 8002874:	493f      	ldr	r1, [pc, #252]	; (8002974 <__ieee754_rem_pio2f+0x2b0>)
 8002876:	4648      	mov	r0, r9
 8002878:	f7fd fd76 	bl	8000368 <__aeabi_fmul>
 800287c:	4607      	mov	r7, r0
 800287e:	4601      	mov	r1, r0
 8002880:	4630      	mov	r0, r6
 8002882:	f7fd fc67 	bl	8000154 <__aeabi_fsub>
 8002886:	4601      	mov	r1, r0
 8002888:	4680      	mov	r8, r0
 800288a:	4630      	mov	r0, r6
 800288c:	f7fd fc62 	bl	8000154 <__aeabi_fsub>
 8002890:	4639      	mov	r1, r7
 8002892:	f7fd fc5f 	bl	8000154 <__aeabi_fsub>
 8002896:	4606      	mov	r6, r0
 8002898:	4937      	ldr	r1, [pc, #220]	; (8002978 <__ieee754_rem_pio2f+0x2b4>)
 800289a:	4648      	mov	r0, r9
 800289c:	f7fd fd64 	bl	8000368 <__aeabi_fmul>
 80028a0:	4631      	mov	r1, r6
 80028a2:	f7fd fc57 	bl	8000154 <__aeabi_fsub>
 80028a6:	4607      	mov	r7, r0
 80028a8:	e795      	b.n	80027d6 <__ieee754_rem_pio2f+0x112>
 80028aa:	f1b6 4fff 	cmp.w	r6, #2139095040	; 0x7f800000
 80028ae:	db05      	blt.n	80028bc <__ieee754_rem_pio2f+0x1f8>
 80028b0:	4601      	mov	r1, r0
 80028b2:	f7fd fc4f 	bl	8000154 <__aeabi_fsub>
 80028b6:	6060      	str	r0, [r4, #4]
 80028b8:	6020      	str	r0, [r4, #0]
 80028ba:	e710      	b.n	80026de <__ieee754_rem_pio2f+0x1a>
 80028bc:	15f7      	asrs	r7, r6, #23
 80028be:	3f86      	subs	r7, #134	; 0x86
 80028c0:	eba6 56c7 	sub.w	r6, r6, r7, lsl #23
 80028c4:	4630      	mov	r0, r6
 80028c6:	f7fd ff15 	bl	80006f4 <__aeabi_f2iz>
 80028ca:	f7fd fcf9 	bl	80002c0 <__aeabi_i2f>
 80028ce:	4601      	mov	r1, r0
 80028d0:	9003      	str	r0, [sp, #12]
 80028d2:	4630      	mov	r0, r6
 80028d4:	f7fd fc3e 	bl	8000154 <__aeabi_fsub>
 80028d8:	f04f 4187 	mov.w	r1, #1132462080	; 0x43800000
 80028dc:	f7fd fd44 	bl	8000368 <__aeabi_fmul>
 80028e0:	4606      	mov	r6, r0
 80028e2:	f7fd ff07 	bl	80006f4 <__aeabi_f2iz>
 80028e6:	f7fd fceb 	bl	80002c0 <__aeabi_i2f>
 80028ea:	4601      	mov	r1, r0
 80028ec:	9004      	str	r0, [sp, #16]
 80028ee:	4605      	mov	r5, r0
 80028f0:	4630      	mov	r0, r6
 80028f2:	f7fd fc2f 	bl	8000154 <__aeabi_fsub>
 80028f6:	f04f 4187 	mov.w	r1, #1132462080	; 0x43800000
 80028fa:	f7fd fd35 	bl	8000368 <__aeabi_fmul>
 80028fe:	2100      	movs	r1, #0
 8002900:	9005      	str	r0, [sp, #20]
 8002902:	f7fd fec5 	bl	8000690 <__aeabi_fcmpeq>
 8002906:	b1f0      	cbz	r0, 8002946 <__ieee754_rem_pio2f+0x282>
 8002908:	2100      	movs	r1, #0
 800290a:	4628      	mov	r0, r5
 800290c:	f7fd fec0 	bl	8000690 <__aeabi_fcmpeq>
 8002910:	2800      	cmp	r0, #0
 8002912:	bf14      	ite	ne
 8002914:	2301      	movne	r3, #1
 8002916:	2302      	moveq	r3, #2
 8002918:	4a18      	ldr	r2, [pc, #96]	; (800297c <__ieee754_rem_pio2f+0x2b8>)
 800291a:	4621      	mov	r1, r4
 800291c:	9201      	str	r2, [sp, #4]
 800291e:	2202      	movs	r2, #2
 8002920:	a803      	add	r0, sp, #12
 8002922:	9200      	str	r2, [sp, #0]
 8002924:	463a      	mov	r2, r7
 8002926:	f000 f8ab 	bl	8002a80 <__kernel_rem_pio2f>
 800292a:	f1ba 0f00 	cmp.w	sl, #0
 800292e:	4605      	mov	r5, r0
 8002930:	f6bf aef2 	bge.w	8002718 <__ieee754_rem_pio2f+0x54>
 8002934:	6823      	ldr	r3, [r4, #0]
 8002936:	f103 4300 	add.w	r3, r3, #2147483648	; 0x80000000
 800293a:	6023      	str	r3, [r4, #0]
 800293c:	6863      	ldr	r3, [r4, #4]
 800293e:	f103 4300 	add.w	r3, r3, #2147483648	; 0x80000000
 8002942:	6063      	str	r3, [r4, #4]
 8002944:	e794      	b.n	8002870 <__ieee754_rem_pio2f+0x1ac>
 8002946:	2303      	movs	r3, #3
 8002948:	e7e6      	b.n	8002918 <__ieee754_rem_pio2f+0x254>
 800294a:	bf00      	nop
 800294c:	3f490fd8 	.word	0x3f490fd8
 8002950:	4016cbe3 	.word	0x4016cbe3
 8002954:	3fc90f80 	.word	0x3fc90f80
 8002958:	3fc90fd0 	.word	0x3fc90fd0
 800295c:	37354443 	.word	0x37354443
 8002960:	37354400 	.word	0x37354400
 8002964:	2e85a308 	.word	0x2e85a308
 8002968:	43490f80 	.word	0x43490f80
 800296c:	3f22f984 	.word	0x3f22f984
 8002970:	08003360 	.word	0x08003360
 8002974:	2e85a300 	.word	0x2e85a300
 8002978:	248d3132 	.word	0x248d3132
 800297c:	080033e0 	.word	0x080033e0

08002980 <__kernel_cosf>:
 8002980:	e92d 41f0 	stmdb	sp!, {r4, r5, r6, r7, r8, lr}
 8002984:	f020 4400 	bic.w	r4, r0, #2147483648	; 0x80000000
 8002988:	f1b4 5f48 	cmp.w	r4, #838860800	; 0x32000000
 800298c:	4606      	mov	r6, r0
 800298e:	4688      	mov	r8, r1
 8002990:	da03      	bge.n	800299a <__kernel_cosf+0x1a>
 8002992:	f7fd feaf 	bl	80006f4 <__aeabi_f2iz>
 8002996:	2800      	cmp	r0, #0
 8002998:	d05c      	beq.n	8002a54 <__kernel_cosf+0xd4>
 800299a:	4631      	mov	r1, r6
 800299c:	4630      	mov	r0, r6
 800299e:	f7fd fce3 	bl	8000368 <__aeabi_fmul>
 80029a2:	f04f 517c 	mov.w	r1, #1056964608	; 0x3f000000
 80029a6:	4605      	mov	r5, r0
 80029a8:	f7fd fcde 	bl	8000368 <__aeabi_fmul>
 80029ac:	492b      	ldr	r1, [pc, #172]	; (8002a5c <__kernel_cosf+0xdc>)
 80029ae:	4607      	mov	r7, r0
 80029b0:	4628      	mov	r0, r5
 80029b2:	f7fd fcd9 	bl	8000368 <__aeabi_fmul>
 80029b6:	492a      	ldr	r1, [pc, #168]	; (8002a60 <__kernel_cosf+0xe0>)
 80029b8:	f7fd fbce 	bl	8000158 <__addsf3>
 80029bc:	4629      	mov	r1, r5
 80029be:	f7fd fcd3 	bl	8000368 <__aeabi_fmul>
 80029c2:	4928      	ldr	r1, [pc, #160]	; (8002a64 <__kernel_cosf+0xe4>)
 80029c4:	f7fd fbc6 	bl	8000154 <__aeabi_fsub>
 80029c8:	4629      	mov	r1, r5
 80029ca:	f7fd fccd 	bl	8000368 <__aeabi_fmul>
 80029ce:	4926      	ldr	r1, [pc, #152]	; (8002a68 <__kernel_cosf+0xe8>)
 80029d0:	f7fd fbc2 	bl	8000158 <__addsf3>
 80029d4:	4629      	mov	r1, r5
 80029d6:	f7fd fcc7 	bl	8000368 <__aeabi_fmul>
 80029da:	4924      	ldr	r1, [pc, #144]	; (8002a6c <__kernel_cosf+0xec>)
 80029dc:	f7fd fbba 	bl	8000154 <__aeabi_fsub>
 80029e0:	4629      	mov	r1, r5
 80029e2:	f7fd fcc1 	bl	8000368 <__aeabi_fmul>
 80029e6:	4922      	ldr	r1, [pc, #136]	; (8002a70 <__kernel_cosf+0xf0>)
 80029e8:	f7fd fbb6 	bl	8000158 <__addsf3>
 80029ec:	4629      	mov	r1, r5
 80029ee:	f7fd fcbb 	bl	8000368 <__aeabi_fmul>
 80029f2:	4629      	mov	r1, r5
 80029f4:	f7fd fcb8 	bl	8000368 <__aeabi_fmul>
 80029f8:	4641      	mov	r1, r8
 80029fa:	4605      	mov	r5, r0
 80029fc:	4630      	mov	r0, r6
 80029fe:	f7fd fcb3 	bl	8000368 <__aeabi_fmul>
 8002a02:	4601      	mov	r1, r0
 8002a04:	4628      	mov	r0, r5
 8002a06:	f7fd fba5 	bl	8000154 <__aeabi_fsub>
 8002a0a:	4b1a      	ldr	r3, [pc, #104]	; (8002a74 <__kernel_cosf+0xf4>)
 8002a0c:	4605      	mov	r5, r0
 8002a0e:	429c      	cmp	r4, r3
 8002a10:	dc0a      	bgt.n	8002a28 <__kernel_cosf+0xa8>
 8002a12:	4601      	mov	r1, r0
 8002a14:	4638      	mov	r0, r7
 8002a16:	f7fd fb9d 	bl	8000154 <__aeabi_fsub>
 8002a1a:	4601      	mov	r1, r0
 8002a1c:	f04f 507e 	mov.w	r0, #1065353216	; 0x3f800000
 8002a20:	f7fd fb98 	bl	8000154 <__aeabi_fsub>
 8002a24:	e8bd 81f0 	ldmia.w	sp!, {r4, r5, r6, r7, r8, pc}
 8002a28:	4b13      	ldr	r3, [pc, #76]	; (8002a78 <__kernel_cosf+0xf8>)
 8002a2a:	f04f 507e 	mov.w	r0, #1065353216	; 0x3f800000
 8002a2e:	429c      	cmp	r4, r3
 8002a30:	bfcc      	ite	gt
 8002a32:	4c12      	ldrgt	r4, [pc, #72]	; (8002a7c <__kernel_cosf+0xfc>)
 8002a34:	f104 447f 	addle.w	r4, r4, #4278190080	; 0xff000000
 8002a38:	4621      	mov	r1, r4
 8002a3a:	f7fd fb8b 	bl	8000154 <__aeabi_fsub>
 8002a3e:	4621      	mov	r1, r4
 8002a40:	4606      	mov	r6, r0
 8002a42:	4638      	mov	r0, r7
 8002a44:	f7fd fb86 	bl	8000154 <__aeabi_fsub>
 8002a48:	4629      	mov	r1, r5
 8002a4a:	f7fd fb83 	bl	8000154 <__aeabi_fsub>
 8002a4e:	4601      	mov	r1, r0
 8002a50:	4630      	mov	r0, r6
 8002a52:	e7e5      	b.n	8002a20 <__kernel_cosf+0xa0>
 8002a54:	f04f 507e 	mov.w	r0, #1065353216	; 0x3f800000
 8002a58:	e7e4      	b.n	8002a24 <__kernel_cosf+0xa4>
 8002a5a:	bf00      	nop
 8002a5c:	ad47d74e 	.word	0xad47d74e
 8002a60:	310f74f6 	.word	0x310f74f6
 8002a64:	3493f27c 	.word	0x3493f27c
 8002a68:	37d00d01 	.word	0x37d00d01
 8002a6c:	3ab60b61 	.word	0x3ab60b61
 8002a70:	3d2aaaab 	.word	0x3d2aaaab
 8002a74:	3e999999 	.word	0x3e999999
 8002a78:	3f480000 	.word	0x3f480000
 8002a7c:	3e900000 	.word	0x3e900000

08002a80 <__kernel_rem_pio2f>:
 8002a80:	e92d 4ff0 	stmdb	sp!, {r4, r5, r6, r7, r8, r9, sl, fp, lr}
 8002a84:	b0db      	sub	sp, #364	; 0x16c
 8002a86:	9202      	str	r2, [sp, #8]
 8002a88:	9304      	str	r3, [sp, #16]
 8002a8a:	9a64      	ldr	r2, [sp, #400]	; 0x190
 8002a8c:	4bc5      	ldr	r3, [pc, #788]	; (8002da4 <__kernel_rem_pio2f+0x324>)
 8002a8e:	9005      	str	r0, [sp, #20]
 8002a90:	f853 3022 	ldr.w	r3, [r3, r2, lsl #2]
 8002a94:	9100      	str	r1, [sp, #0]
 8002a96:	9301      	str	r3, [sp, #4]
 8002a98:	9b04      	ldr	r3, [sp, #16]
 8002a9a:	3b01      	subs	r3, #1
 8002a9c:	9303      	str	r3, [sp, #12]
 8002a9e:	9b02      	ldr	r3, [sp, #8]
 8002aa0:	1d1a      	adds	r2, r3, #4
 8002aa2:	f2c0 809b 	blt.w	8002bdc <__kernel_rem_pio2f+0x15c>
 8002aa6:	1edc      	subs	r4, r3, #3
 8002aa8:	bf48      	it	mi
 8002aaa:	1d1c      	addmi	r4, r3, #4
 8002aac:	10e4      	asrs	r4, r4, #3
 8002aae:	2500      	movs	r5, #0
 8002ab0:	f04f 0a00 	mov.w	sl, #0
 8002ab4:	1c67      	adds	r7, r4, #1
 8002ab6:	00fb      	lsls	r3, r7, #3
 8002ab8:	9306      	str	r3, [sp, #24]
 8002aba:	9b02      	ldr	r3, [sp, #8]
 8002abc:	9a03      	ldr	r2, [sp, #12]
 8002abe:	eba3 07c7 	sub.w	r7, r3, r7, lsl #3
 8002ac2:	9b01      	ldr	r3, [sp, #4]
 8002ac4:	1aa6      	subs	r6, r4, r2
 8002ac6:	eb03 0802 	add.w	r8, r3, r2
 8002aca:	9b65      	ldr	r3, [sp, #404]	; 0x194
 8002acc:	f10d 0b78 	add.w	fp, sp, #120	; 0x78
 8002ad0:	eb03 0986 	add.w	r9, r3, r6, lsl #2
 8002ad4:	4545      	cmp	r5, r8
 8002ad6:	f340 8083 	ble.w	8002be0 <__kernel_rem_pio2f+0x160>
 8002ada:	f04f 0800 	mov.w	r8, #0
 8002ade:	f04f 0b00 	mov.w	fp, #0
 8002ae2:	9b04      	ldr	r3, [sp, #16]
 8002ae4:	aa1e      	add	r2, sp, #120	; 0x78
 8002ae6:	eb02 0583 	add.w	r5, r2, r3, lsl #2
 8002aea:	ab46      	add	r3, sp, #280	; 0x118
 8002aec:	9a01      	ldr	r2, [sp, #4]
 8002aee:	4590      	cmp	r8, r2
 8002af0:	f340 809c 	ble.w	8002c2c <__kernel_rem_pio2f+0x1ac>
 8002af4:	4613      	mov	r3, r2
 8002af6:	aa0a      	add	r2, sp, #40	; 0x28
 8002af8:	eb02 0383 	add.w	r3, r2, r3, lsl #2
 8002afc:	9308      	str	r3, [sp, #32]
 8002afe:	9b65      	ldr	r3, [sp, #404]	; 0x194
 8002b00:	f8dd 8004 	ldr.w	r8, [sp, #4]
 8002b04:	eb03 0384 	add.w	r3, r3, r4, lsl #2
 8002b08:	9307      	str	r3, [sp, #28]
 8002b0a:	ad0a      	add	r5, sp, #40	; 0x28
 8002b0c:	462e      	mov	r6, r5
 8002b0e:	46c3      	mov	fp, r8
 8002b10:	f04f 4987 	mov.w	r9, #1132462080	; 0x43800000
 8002b14:	ab5a      	add	r3, sp, #360	; 0x168
 8002b16:	eb03 0388 	add.w	r3, r3, r8, lsl #2
 8002b1a:	f853 4c50 	ldr.w	r4, [r3, #-80]
 8002b1e:	f50d 7a8c 	add.w	sl, sp, #280	; 0x118
 8002b22:	f1bb 0f00 	cmp.w	fp, #0
 8002b26:	f300 8086 	bgt.w	8002c36 <__kernel_rem_pio2f+0x1b6>
 8002b2a:	4639      	mov	r1, r7
 8002b2c:	4620      	mov	r0, r4
 8002b2e:	f000 fb19 	bl	8003164 <scalbnf>
 8002b32:	f04f 5178 	mov.w	r1, #1040187392	; 0x3e000000
 8002b36:	4604      	mov	r4, r0
 8002b38:	f7fd fc16 	bl	8000368 <__aeabi_fmul>
 8002b3c:	f000 fad0 	bl	80030e0 <floorf>
 8002b40:	f04f 4182 	mov.w	r1, #1090519040	; 0x41000000
 8002b44:	f7fd fc10 	bl	8000368 <__aeabi_fmul>
 8002b48:	4601      	mov	r1, r0
 8002b4a:	4620      	mov	r0, r4
 8002b4c:	f7fd fb02 	bl	8000154 <__aeabi_fsub>
 8002b50:	4604      	mov	r4, r0
 8002b52:	f7fd fdcf 	bl	80006f4 <__aeabi_f2iz>
 8002b56:	4606      	mov	r6, r0
 8002b58:	f7fd fbb2 	bl	80002c0 <__aeabi_i2f>
 8002b5c:	4601      	mov	r1, r0
 8002b5e:	4620      	mov	r0, r4
 8002b60:	f7fd faf8 	bl	8000154 <__aeabi_fsub>
 8002b64:	2f00      	cmp	r7, #0
 8002b66:	4681      	mov	r9, r0
 8002b68:	f340 8084 	ble.w	8002c74 <__kernel_rem_pio2f+0x1f4>
 8002b6c:	f108 32ff 	add.w	r2, r8, #4294967295
 8002b70:	ab0a      	add	r3, sp, #40	; 0x28
 8002b72:	f853 4022 	ldr.w	r4, [r3, r2, lsl #2]
 8002b76:	f1c7 0108 	rsb	r1, r7, #8
 8002b7a:	fa44 f301 	asr.w	r3, r4, r1
 8002b7e:	441e      	add	r6, r3
 8002b80:	408b      	lsls	r3, r1
 8002b82:	1ae4      	subs	r4, r4, r3
 8002b84:	f1c7 0007 	rsb	r0, r7, #7
 8002b88:	ab0a      	add	r3, sp, #40	; 0x28
 8002b8a:	f843 4022 	str.w	r4, [r3, r2, lsl #2]
 8002b8e:	4104      	asrs	r4, r0
 8002b90:	2c00      	cmp	r4, #0
 8002b92:	dd7e      	ble.n	8002c92 <__kernel_rem_pio2f+0x212>
 8002b94:	2200      	movs	r2, #0
 8002b96:	4692      	mov	sl, r2
 8002b98:	3601      	adds	r6, #1
 8002b9a:	4590      	cmp	r8, r2
 8002b9c:	f300 80b0 	bgt.w	8002d00 <__kernel_rem_pio2f+0x280>
 8002ba0:	2f00      	cmp	r7, #0
 8002ba2:	dd05      	ble.n	8002bb0 <__kernel_rem_pio2f+0x130>
 8002ba4:	2f01      	cmp	r7, #1
 8002ba6:	f000 80bd 	beq.w	8002d24 <__kernel_rem_pio2f+0x2a4>
 8002baa:	2f02      	cmp	r7, #2
 8002bac:	f000 80c5 	beq.w	8002d3a <__kernel_rem_pio2f+0x2ba>
 8002bb0:	2c02      	cmp	r4, #2
 8002bb2:	d16e      	bne.n	8002c92 <__kernel_rem_pio2f+0x212>
 8002bb4:	4649      	mov	r1, r9
 8002bb6:	f04f 507e 	mov.w	r0, #1065353216	; 0x3f800000
 8002bba:	f7fd facb 	bl	8000154 <__aeabi_fsub>
 8002bbe:	4681      	mov	r9, r0
 8002bc0:	f1ba 0f00 	cmp.w	sl, #0
 8002bc4:	d065      	beq.n	8002c92 <__kernel_rem_pio2f+0x212>
 8002bc6:	4639      	mov	r1, r7
 8002bc8:	f04f 507e 	mov.w	r0, #1065353216	; 0x3f800000
 8002bcc:	f000 faca 	bl	8003164 <scalbnf>
 8002bd0:	4601      	mov	r1, r0
 8002bd2:	4648      	mov	r0, r9
 8002bd4:	f7fd fabe 	bl	8000154 <__aeabi_fsub>
 8002bd8:	4681      	mov	r9, r0
 8002bda:	e05a      	b.n	8002c92 <__kernel_rem_pio2f+0x212>
 8002bdc:	2400      	movs	r4, #0
 8002bde:	e766      	b.n	8002aae <__kernel_rem_pio2f+0x2e>
 8002be0:	42ee      	cmn	r6, r5
 8002be2:	d407      	bmi.n	8002bf4 <__kernel_rem_pio2f+0x174>
 8002be4:	f859 0025 	ldr.w	r0, [r9, r5, lsl #2]
 8002be8:	f7fd fb6a 	bl	80002c0 <__aeabi_i2f>
 8002bec:	f84b 0025 	str.w	r0, [fp, r5, lsl #2]
 8002bf0:	3501      	adds	r5, #1
 8002bf2:	e76f      	b.n	8002ad4 <__kernel_rem_pio2f+0x54>
 8002bf4:	4650      	mov	r0, sl
 8002bf6:	e7f9      	b.n	8002bec <__kernel_rem_pio2f+0x16c>
 8002bf8:	9b05      	ldr	r3, [sp, #20]
 8002bfa:	f8da 1000 	ldr.w	r1, [sl]
 8002bfe:	f853 0029 	ldr.w	r0, [r3, r9, lsl #2]
 8002c02:	f7fd fbb1 	bl	8000368 <__aeabi_fmul>
 8002c06:	4601      	mov	r1, r0
 8002c08:	4630      	mov	r0, r6
 8002c0a:	f7fd faa5 	bl	8000158 <__addsf3>
 8002c0e:	4606      	mov	r6, r0
 8002c10:	f109 0901 	add.w	r9, r9, #1
 8002c14:	ab46      	add	r3, sp, #280	; 0x118
 8002c16:	9a03      	ldr	r2, [sp, #12]
 8002c18:	f1aa 0a04 	sub.w	sl, sl, #4
 8002c1c:	4591      	cmp	r9, r2
 8002c1e:	ddeb      	ble.n	8002bf8 <__kernel_rem_pio2f+0x178>
 8002c20:	f843 6028 	str.w	r6, [r3, r8, lsl #2]
 8002c24:	3504      	adds	r5, #4
 8002c26:	f108 0801 	add.w	r8, r8, #1
 8002c2a:	e75f      	b.n	8002aec <__kernel_rem_pio2f+0x6c>
 8002c2c:	46aa      	mov	sl, r5
 8002c2e:	465e      	mov	r6, fp
 8002c30:	f04f 0900 	mov.w	r9, #0
 8002c34:	e7ef      	b.n	8002c16 <__kernel_rem_pio2f+0x196>
 8002c36:	f04f 516e 	mov.w	r1, #998244352	; 0x3b800000
 8002c3a:	4620      	mov	r0, r4
 8002c3c:	f7fd fb94 	bl	8000368 <__aeabi_fmul>
 8002c40:	f7fd fd58 	bl	80006f4 <__aeabi_f2iz>
 8002c44:	f7fd fb3c 	bl	80002c0 <__aeabi_i2f>
 8002c48:	4649      	mov	r1, r9
 8002c4a:	9009      	str	r0, [sp, #36]	; 0x24
 8002c4c:	f7fd fb8c 	bl	8000368 <__aeabi_fmul>
 8002c50:	4601      	mov	r1, r0
 8002c52:	4620      	mov	r0, r4
 8002c54:	f7fd fa7e 	bl	8000154 <__aeabi_fsub>
 8002c58:	f7fd fd4c 	bl	80006f4 <__aeabi_f2iz>
 8002c5c:	9b09      	ldr	r3, [sp, #36]	; 0x24
 8002c5e:	f10b 3bff 	add.w	fp, fp, #4294967295
 8002c62:	f846 0b04 	str.w	r0, [r6], #4
 8002c66:	f85a 102b 	ldr.w	r1, [sl, fp, lsl #2]
 8002c6a:	4618      	mov	r0, r3
 8002c6c:	f7fd fa74 	bl	8000158 <__addsf3>
 8002c70:	4604      	mov	r4, r0
 8002c72:	e756      	b.n	8002b22 <__kernel_rem_pio2f+0xa2>
 8002c74:	d106      	bne.n	8002c84 <__kernel_rem_pio2f+0x204>
 8002c76:	f108 33ff 	add.w	r3, r8, #4294967295
 8002c7a:	aa0a      	add	r2, sp, #40	; 0x28
 8002c7c:	f852 4023 	ldr.w	r4, [r2, r3, lsl #2]
 8002c80:	1224      	asrs	r4, r4, #8
 8002c82:	e785      	b.n	8002b90 <__kernel_rem_pio2f+0x110>
 8002c84:	f04f 517c 	mov.w	r1, #1056964608	; 0x3f000000
 8002c88:	f7fd fd20 	bl	80006cc <__aeabi_fcmpge>
 8002c8c:	4604      	mov	r4, r0
 8002c8e:	2800      	cmp	r0, #0
 8002c90:	d134      	bne.n	8002cfc <__kernel_rem_pio2f+0x27c>
 8002c92:	2100      	movs	r1, #0
 8002c94:	4648      	mov	r0, r9
 8002c96:	f7fd fcfb 	bl	8000690 <__aeabi_fcmpeq>
 8002c9a:	2800      	cmp	r0, #0
 8002c9c:	f000 809a 	beq.w	8002dd4 <__kernel_rem_pio2f+0x354>
 8002ca0:	f108 35ff 	add.w	r5, r8, #4294967295
 8002ca4:	462b      	mov	r3, r5
 8002ca6:	2200      	movs	r2, #0
 8002ca8:	9901      	ldr	r1, [sp, #4]
 8002caa:	428b      	cmp	r3, r1
 8002cac:	da4d      	bge.n	8002d4a <__kernel_rem_pio2f+0x2ca>
 8002cae:	2a00      	cmp	r2, #0
 8002cb0:	d07c      	beq.n	8002dac <__kernel_rem_pio2f+0x32c>
 8002cb2:	ab0a      	add	r3, sp, #40	; 0x28
 8002cb4:	f853 3025 	ldr.w	r3, [r3, r5, lsl #2]
 8002cb8:	3f08      	subs	r7, #8
 8002cba:	2b00      	cmp	r3, #0
 8002cbc:	f000 8088 	beq.w	8002dd0 <__kernel_rem_pio2f+0x350>
 8002cc0:	4639      	mov	r1, r7
 8002cc2:	f04f 507e 	mov.w	r0, #1065353216	; 0x3f800000
 8002cc6:	f000 fa4d 	bl	8003164 <scalbnf>
 8002cca:	46aa      	mov	sl, r5
 8002ccc:	4681      	mov	r9, r0
 8002cce:	f04f 586e 	mov.w	r8, #998244352	; 0x3b800000
 8002cd2:	af46      	add	r7, sp, #280	; 0x118
 8002cd4:	f1ba 0f00 	cmp.w	sl, #0
 8002cd8:	f280 80b1 	bge.w	8002e3e <__kernel_rem_pio2f+0x3be>
 8002cdc:	46a9      	mov	r9, r5
 8002cde:	f04f 0a00 	mov.w	sl, #0
 8002ce2:	2200      	movs	r2, #0
 8002ce4:	f1b9 0f00 	cmp.w	r9, #0
 8002ce8:	f2c0 80db 	blt.w	8002ea2 <__kernel_rem_pio2f+0x422>
 8002cec:	a946      	add	r1, sp, #280	; 0x118
 8002cee:	4617      	mov	r7, r2
 8002cf0:	f04f 0800 	mov.w	r8, #0
 8002cf4:	4b2c      	ldr	r3, [pc, #176]	; (8002da8 <__kernel_rem_pio2f+0x328>)
 8002cf6:	eb01 0b89 	add.w	fp, r1, r9, lsl #2
 8002cfa:	e0c3      	b.n	8002e84 <__kernel_rem_pio2f+0x404>
 8002cfc:	2402      	movs	r4, #2
 8002cfe:	e749      	b.n	8002b94 <__kernel_rem_pio2f+0x114>
 8002d00:	682b      	ldr	r3, [r5, #0]
 8002d02:	f1ba 0f00 	cmp.w	sl, #0
 8002d06:	d108      	bne.n	8002d1a <__kernel_rem_pio2f+0x29a>
 8002d08:	b11b      	cbz	r3, 8002d12 <__kernel_rem_pio2f+0x292>
 8002d0a:	f5c3 7380 	rsb	r3, r3, #256	; 0x100
 8002d0e:	602b      	str	r3, [r5, #0]
 8002d10:	2301      	movs	r3, #1
 8002d12:	469a      	mov	sl, r3
 8002d14:	3201      	adds	r2, #1
 8002d16:	3504      	adds	r5, #4
 8002d18:	e73f      	b.n	8002b9a <__kernel_rem_pio2f+0x11a>
 8002d1a:	f1c3 03ff 	rsb	r3, r3, #255	; 0xff
 8002d1e:	602b      	str	r3, [r5, #0]
 8002d20:	4653      	mov	r3, sl
 8002d22:	e7f6      	b.n	8002d12 <__kernel_rem_pio2f+0x292>
 8002d24:	f108 32ff 	add.w	r2, r8, #4294967295
 8002d28:	ab0a      	add	r3, sp, #40	; 0x28
 8002d2a:	f853 3022 	ldr.w	r3, [r3, r2, lsl #2]
 8002d2e:	f003 037f 	and.w	r3, r3, #127	; 0x7f
 8002d32:	a90a      	add	r1, sp, #40	; 0x28
 8002d34:	f841 3022 	str.w	r3, [r1, r2, lsl #2]
 8002d38:	e73a      	b.n	8002bb0 <__kernel_rem_pio2f+0x130>
 8002d3a:	f108 32ff 	add.w	r2, r8, #4294967295
 8002d3e:	ab0a      	add	r3, sp, #40	; 0x28
 8002d40:	f853 3022 	ldr.w	r3, [r3, r2, lsl #2]
 8002d44:	f003 033f 	and.w	r3, r3, #63	; 0x3f
 8002d48:	e7f3      	b.n	8002d32 <__kernel_rem_pio2f+0x2b2>
 8002d4a:	a90a      	add	r1, sp, #40	; 0x28
 8002d4c:	f851 1023 	ldr.w	r1, [r1, r3, lsl #2]
 8002d50:	3b01      	subs	r3, #1
 8002d52:	430a      	orrs	r2, r1
 8002d54:	e7a8      	b.n	8002ca8 <__kernel_rem_pio2f+0x228>
 8002d56:	3301      	adds	r3, #1
 8002d58:	f852 1d04 	ldr.w	r1, [r2, #-4]!
 8002d5c:	2900      	cmp	r1, #0
 8002d5e:	d0fa      	beq.n	8002d56 <__kernel_rem_pio2f+0x2d6>
 8002d60:	9a04      	ldr	r2, [sp, #16]
 8002d62:	f108 0501 	add.w	r5, r8, #1
 8002d66:	eb08 0402 	add.w	r4, r8, r2
 8002d6a:	aa1e      	add	r2, sp, #120	; 0x78
 8002d6c:	eb02 0484 	add.w	r4, r2, r4, lsl #2
 8002d70:	4498      	add	r8, r3
 8002d72:	f50d 798c 	add.w	r9, sp, #280	; 0x118
 8002d76:	45a8      	cmp	r8, r5
 8002d78:	f6ff aec7 	blt.w	8002b0a <__kernel_rem_pio2f+0x8a>
 8002d7c:	9b07      	ldr	r3, [sp, #28]
 8002d7e:	46a3      	mov	fp, r4
 8002d80:	f853 0025 	ldr.w	r0, [r3, r5, lsl #2]
 8002d84:	f7fd fa9c 	bl	80002c0 <__aeabi_i2f>
 8002d88:	f04f 0a00 	mov.w	sl, #0
 8002d8c:	2600      	movs	r6, #0
 8002d8e:	f84b 0b04 	str.w	r0, [fp], #4
 8002d92:	9b03      	ldr	r3, [sp, #12]
 8002d94:	459a      	cmp	sl, r3
 8002d96:	dd0c      	ble.n	8002db2 <__kernel_rem_pio2f+0x332>
 8002d98:	f849 6025 	str.w	r6, [r9, r5, lsl #2]
 8002d9c:	465c      	mov	r4, fp
 8002d9e:	3501      	adds	r5, #1
 8002da0:	e7e9      	b.n	8002d76 <__kernel_rem_pio2f+0x2f6>
 8002da2:	bf00      	nop
 8002da4:	08003724 	.word	0x08003724
 8002da8:	080036f8 	.word	0x080036f8
 8002dac:	2301      	movs	r3, #1
 8002dae:	9a08      	ldr	r2, [sp, #32]
 8002db0:	e7d2      	b.n	8002d58 <__kernel_rem_pio2f+0x2d8>
 8002db2:	9b05      	ldr	r3, [sp, #20]
 8002db4:	f854 0904 	ldr.w	r0, [r4], #-4
 8002db8:	f853 102a 	ldr.w	r1, [r3, sl, lsl #2]
 8002dbc:	f7fd fad4 	bl	8000368 <__aeabi_fmul>
 8002dc0:	4601      	mov	r1, r0
 8002dc2:	4630      	mov	r0, r6
 8002dc4:	f7fd f9c8 	bl	8000158 <__addsf3>
 8002dc8:	f10a 0a01 	add.w	sl, sl, #1
 8002dcc:	4606      	mov	r6, r0
 8002dce:	e7e0      	b.n	8002d92 <__kernel_rem_pio2f+0x312>
 8002dd0:	3d01      	subs	r5, #1
 8002dd2:	e76e      	b.n	8002cb2 <__kernel_rem_pio2f+0x232>
 8002dd4:	9b06      	ldr	r3, [sp, #24]
 8002dd6:	9a02      	ldr	r2, [sp, #8]
 8002dd8:	4648      	mov	r0, r9
 8002dda:	1a99      	subs	r1, r3, r2
 8002ddc:	f000 f9c2 	bl	8003164 <scalbnf>
 8002de0:	f04f 4187 	mov.w	r1, #1132462080	; 0x43800000
 8002de4:	4605      	mov	r5, r0
 8002de6:	f7fd fc71 	bl	80006cc <__aeabi_fcmpge>
 8002dea:	b300      	cbz	r0, 8002e2e <__kernel_rem_pio2f+0x3ae>
 8002dec:	f04f 516e 	mov.w	r1, #998244352	; 0x3b800000
 8002df0:	4628      	mov	r0, r5
 8002df2:	f7fd fab9 	bl	8000368 <__aeabi_fmul>
 8002df6:	f7fd fc7d 	bl	80006f4 <__aeabi_f2iz>
 8002dfa:	f7fd fa61 	bl	80002c0 <__aeabi_i2f>
 8002dfe:	f04f 4187 	mov.w	r1, #1132462080	; 0x43800000
 8002e02:	4681      	mov	r9, r0
 8002e04:	f7fd fab0 	bl	8000368 <__aeabi_fmul>
 8002e08:	4601      	mov	r1, r0
 8002e0a:	4628      	mov	r0, r5
 8002e0c:	f7fd f9a2 	bl	8000154 <__aeabi_fsub>
 8002e10:	f7fd fc70 	bl	80006f4 <__aeabi_f2iz>
 8002e14:	ab0a      	add	r3, sp, #40	; 0x28
 8002e16:	f843 0028 	str.w	r0, [r3, r8, lsl #2]
 8002e1a:	4648      	mov	r0, r9
 8002e1c:	f7fd fc6a 	bl	80006f4 <__aeabi_f2iz>
 8002e20:	f108 0501 	add.w	r5, r8, #1
 8002e24:	ab0a      	add	r3, sp, #40	; 0x28
 8002e26:	3708      	adds	r7, #8
 8002e28:	f843 0025 	str.w	r0, [r3, r5, lsl #2]
 8002e2c:	e748      	b.n	8002cc0 <__kernel_rem_pio2f+0x240>
 8002e2e:	4628      	mov	r0, r5
 8002e30:	f7fd fc60 	bl	80006f4 <__aeabi_f2iz>
 8002e34:	ab0a      	add	r3, sp, #40	; 0x28
 8002e36:	4645      	mov	r5, r8
 8002e38:	f843 0028 	str.w	r0, [r3, r8, lsl #2]
 8002e3c:	e740      	b.n	8002cc0 <__kernel_rem_pio2f+0x240>
 8002e3e:	ab0a      	add	r3, sp, #40	; 0x28
 8002e40:	f853 002a 	ldr.w	r0, [r3, sl, lsl #2]
 8002e44:	f7fd fa3c 	bl	80002c0 <__aeabi_i2f>
 8002e48:	4649      	mov	r1, r9
 8002e4a:	f7fd fa8d 	bl	8000368 <__aeabi_fmul>
 8002e4e:	4641      	mov	r1, r8
 8002e50:	f847 002a 	str.w	r0, [r7, sl, lsl #2]
 8002e54:	4648      	mov	r0, r9
 8002e56:	f7fd fa87 	bl	8000368 <__aeabi_fmul>
 8002e5a:	f10a 3aff 	add.w	sl, sl, #4294967295
 8002e5e:	4681      	mov	r9, r0
 8002e60:	e738      	b.n	8002cd4 <__kernel_rem_pio2f+0x254>
 8002e62:	f853 0b04 	ldr.w	r0, [r3], #4
 8002e66:	f85b 1b04 	ldr.w	r1, [fp], #4
 8002e6a:	9203      	str	r2, [sp, #12]
 8002e6c:	9302      	str	r3, [sp, #8]
 8002e6e:	f7fd fa7b 	bl	8000368 <__aeabi_fmul>
 8002e72:	4601      	mov	r1, r0
 8002e74:	4638      	mov	r0, r7
 8002e76:	f7fd f96f 	bl	8000158 <__addsf3>
 8002e7a:	e9dd 3202 	ldrd	r3, r2, [sp, #8]
 8002e7e:	4607      	mov	r7, r0
 8002e80:	f108 0801 	add.w	r8, r8, #1
 8002e84:	9901      	ldr	r1, [sp, #4]
 8002e86:	4588      	cmp	r8, r1
 8002e88:	dc01      	bgt.n	8002e8e <__kernel_rem_pio2f+0x40e>
 8002e8a:	45c2      	cmp	sl, r8
 8002e8c:	dae9      	bge.n	8002e62 <__kernel_rem_pio2f+0x3e2>
 8002e8e:	ab5a      	add	r3, sp, #360	; 0x168
 8002e90:	eb03 038a 	add.w	r3, r3, sl, lsl #2
 8002e94:	f843 7ca0 	str.w	r7, [r3, #-160]
 8002e98:	f109 39ff 	add.w	r9, r9, #4294967295
 8002e9c:	f10a 0a01 	add.w	sl, sl, #1
 8002ea0:	e720      	b.n	8002ce4 <__kernel_rem_pio2f+0x264>
 8002ea2:	9b64      	ldr	r3, [sp, #400]	; 0x190
 8002ea4:	2b02      	cmp	r3, #2
 8002ea6:	dc07      	bgt.n	8002eb8 <__kernel_rem_pio2f+0x438>
 8002ea8:	2b00      	cmp	r3, #0
 8002eaa:	dc4d      	bgt.n	8002f48 <__kernel_rem_pio2f+0x4c8>
 8002eac:	d02e      	beq.n	8002f0c <__kernel_rem_pio2f+0x48c>
 8002eae:	f006 0007 	and.w	r0, r6, #7
 8002eb2:	b05b      	add	sp, #364	; 0x16c
 8002eb4:	e8bd 8ff0 	ldmia.w	sp!, {r4, r5, r6, r7, r8, r9, sl, fp, pc}
 8002eb8:	9b64      	ldr	r3, [sp, #400]	; 0x190
 8002eba:	2b03      	cmp	r3, #3
 8002ebc:	d1f7      	bne.n	8002eae <__kernel_rem_pio2f+0x42e>
 8002ebe:	f10d 0bc8 	add.w	fp, sp, #200	; 0xc8
 8002ec2:	eb0b 0785 	add.w	r7, fp, r5, lsl #2
 8002ec6:	46b8      	mov	r8, r7
 8002ec8:	46aa      	mov	sl, r5
 8002eca:	f1ba 0f00 	cmp.w	sl, #0
 8002ece:	dc48      	bgt.n	8002f62 <__kernel_rem_pio2f+0x4e2>
 8002ed0:	46a9      	mov	r9, r5
 8002ed2:	f1b9 0f01 	cmp.w	r9, #1
 8002ed6:	dc5f      	bgt.n	8002f98 <__kernel_rem_pio2f+0x518>
 8002ed8:	2000      	movs	r0, #0
 8002eda:	2d01      	cmp	r5, #1
 8002edc:	dc75      	bgt.n	8002fca <__kernel_rem_pio2f+0x54a>
 8002ede:	9a32      	ldr	r2, [sp, #200]	; 0xc8
 8002ee0:	9b33      	ldr	r3, [sp, #204]	; 0xcc
 8002ee2:	2c00      	cmp	r4, #0
 8002ee4:	d177      	bne.n	8002fd6 <__kernel_rem_pio2f+0x556>
 8002ee6:	9900      	ldr	r1, [sp, #0]
 8002ee8:	600a      	str	r2, [r1, #0]
 8002eea:	460a      	mov	r2, r1
 8002eec:	604b      	str	r3, [r1, #4]
 8002eee:	6090      	str	r0, [r2, #8]
 8002ef0:	e7dd      	b.n	8002eae <__kernel_rem_pio2f+0x42e>
 8002ef2:	f857 1025 	ldr.w	r1, [r7, r5, lsl #2]
 8002ef6:	f7fd f92f 	bl	8000158 <__addsf3>
 8002efa:	3d01      	subs	r5, #1
 8002efc:	2d00      	cmp	r5, #0
 8002efe:	daf8      	bge.n	8002ef2 <__kernel_rem_pio2f+0x472>
 8002f00:	b10c      	cbz	r4, 8002f06 <__kernel_rem_pio2f+0x486>
 8002f02:	f100 4000 	add.w	r0, r0, #2147483648	; 0x80000000
 8002f06:	9b00      	ldr	r3, [sp, #0]
 8002f08:	6018      	str	r0, [r3, #0]
 8002f0a:	e7d0      	b.n	8002eae <__kernel_rem_pio2f+0x42e>
 8002f0c:	2000      	movs	r0, #0
 8002f0e:	af32      	add	r7, sp, #200	; 0xc8
 8002f10:	e7f4      	b.n	8002efc <__kernel_rem_pio2f+0x47c>
 8002f12:	f858 1027 	ldr.w	r1, [r8, r7, lsl #2]
 8002f16:	f7fd f91f 	bl	8000158 <__addsf3>
 8002f1a:	3f01      	subs	r7, #1
 8002f1c:	2f00      	cmp	r7, #0
 8002f1e:	daf8      	bge.n	8002f12 <__kernel_rem_pio2f+0x492>
 8002f20:	b1bc      	cbz	r4, 8002f52 <__kernel_rem_pio2f+0x4d2>
 8002f22:	f100 4300 	add.w	r3, r0, #2147483648	; 0x80000000
 8002f26:	9a00      	ldr	r2, [sp, #0]
 8002f28:	4601      	mov	r1, r0
 8002f2a:	6013      	str	r3, [r2, #0]
 8002f2c:	9832      	ldr	r0, [sp, #200]	; 0xc8
 8002f2e:	f7fd f911 	bl	8000154 <__aeabi_fsub>
 8002f32:	2701      	movs	r7, #1
 8002f34:	f10d 08c8 	add.w	r8, sp, #200	; 0xc8
 8002f38:	42bd      	cmp	r5, r7
 8002f3a:	da0c      	bge.n	8002f56 <__kernel_rem_pio2f+0x4d6>
 8002f3c:	b10c      	cbz	r4, 8002f42 <__kernel_rem_pio2f+0x4c2>
 8002f3e:	f100 4000 	add.w	r0, r0, #2147483648	; 0x80000000
 8002f42:	9b00      	ldr	r3, [sp, #0]
 8002f44:	6058      	str	r0, [r3, #4]
 8002f46:	e7b2      	b.n	8002eae <__kernel_rem_pio2f+0x42e>
 8002f48:	462f      	mov	r7, r5
 8002f4a:	2000      	movs	r0, #0
 8002f4c:	f10d 08c8 	add.w	r8, sp, #200	; 0xc8
 8002f50:	e7e4      	b.n	8002f1c <__kernel_rem_pio2f+0x49c>
 8002f52:	4603      	mov	r3, r0
 8002f54:	e7e7      	b.n	8002f26 <__kernel_rem_pio2f+0x4a6>
 8002f56:	f858 1027 	ldr.w	r1, [r8, r7, lsl #2]
 8002f5a:	f7fd f8fd 	bl	8000158 <__addsf3>
 8002f5e:	3701      	adds	r7, #1
 8002f60:	e7ea      	b.n	8002f38 <__kernel_rem_pio2f+0x4b8>
 8002f62:	f8d8 3000 	ldr.w	r3, [r8]
 8002f66:	f858 2c04 	ldr.w	r2, [r8, #-4]
 8002f6a:	4619      	mov	r1, r3
 8002f6c:	4610      	mov	r0, r2
 8002f6e:	9302      	str	r3, [sp, #8]
 8002f70:	9201      	str	r2, [sp, #4]
 8002f72:	f7fd f8f1 	bl	8000158 <__addsf3>
 8002f76:	9a01      	ldr	r2, [sp, #4]
 8002f78:	4601      	mov	r1, r0
 8002f7a:	4681      	mov	r9, r0
 8002f7c:	4610      	mov	r0, r2
 8002f7e:	f7fd f8e9 	bl	8000154 <__aeabi_fsub>
 8002f82:	9b02      	ldr	r3, [sp, #8]
 8002f84:	f10a 3aff 	add.w	sl, sl, #4294967295
 8002f88:	4619      	mov	r1, r3
 8002f8a:	f7fd f8e5 	bl	8000158 <__addsf3>
 8002f8e:	f848 0904 	str.w	r0, [r8], #-4
 8002f92:	f8c8 9000 	str.w	r9, [r8]
 8002f96:	e798      	b.n	8002eca <__kernel_rem_pio2f+0x44a>
 8002f98:	f857 3c04 	ldr.w	r3, [r7, #-4]
 8002f9c:	f8d7 a000 	ldr.w	sl, [r7]
 8002fa0:	4618      	mov	r0, r3
 8002fa2:	4651      	mov	r1, sl
 8002fa4:	9301      	str	r3, [sp, #4]
 8002fa6:	f7fd f8d7 	bl	8000158 <__addsf3>
 8002faa:	9b01      	ldr	r3, [sp, #4]
 8002fac:	4601      	mov	r1, r0
 8002fae:	4680      	mov	r8, r0
 8002fb0:	4618      	mov	r0, r3
 8002fb2:	f7fd f8cf 	bl	8000154 <__aeabi_fsub>
 8002fb6:	4651      	mov	r1, sl
 8002fb8:	f7fd f8ce 	bl	8000158 <__addsf3>
 8002fbc:	f847 0904 	str.w	r0, [r7], #-4
 8002fc0:	f109 39ff 	add.w	r9, r9, #4294967295
 8002fc4:	f8c7 8000 	str.w	r8, [r7]
 8002fc8:	e783      	b.n	8002ed2 <__kernel_rem_pio2f+0x452>
 8002fca:	f85b 1025 	ldr.w	r1, [fp, r5, lsl #2]
 8002fce:	f7fd f8c3 	bl	8000158 <__addsf3>
 8002fd2:	3d01      	subs	r5, #1
 8002fd4:	e781      	b.n	8002eda <__kernel_rem_pio2f+0x45a>
 8002fd6:	9900      	ldr	r1, [sp, #0]
 8002fd8:	f102 4200 	add.w	r2, r2, #2147483648	; 0x80000000
 8002fdc:	f103 4300 	add.w	r3, r3, #2147483648	; 0x80000000
 8002fe0:	600a      	str	r2, [r1, #0]
 8002fe2:	604b      	str	r3, [r1, #4]
 8002fe4:	460a      	mov	r2, r1
 8002fe6:	f100 4000 	add.w	r0, r0, #2147483648	; 0x80000000
 8002fea:	e780      	b.n	8002eee <__kernel_rem_pio2f+0x46e>

08002fec <__kernel_sinf>:
 8002fec:	e92d 43f8 	stmdb	sp!, {r3, r4, r5, r6, r7, r8, r9, lr}
 8002ff0:	f020 4300 	bic.w	r3, r0, #2147483648	; 0x80000000
 8002ff4:	f1b3 5f48 	cmp.w	r3, #838860800	; 0x32000000
 8002ff8:	4604      	mov	r4, r0
 8002ffa:	460f      	mov	r7, r1
 8002ffc:	4691      	mov	r9, r2
 8002ffe:	da03      	bge.n	8003008 <__kernel_sinf+0x1c>
 8003000:	f7fd fb78 	bl	80006f4 <__aeabi_f2iz>
 8003004:	2800      	cmp	r0, #0
 8003006:	d035      	beq.n	8003074 <__kernel_sinf+0x88>
 8003008:	4621      	mov	r1, r4
 800300a:	4620      	mov	r0, r4
 800300c:	f7fd f9ac 	bl	8000368 <__aeabi_fmul>
 8003010:	4605      	mov	r5, r0
 8003012:	4601      	mov	r1, r0
 8003014:	4620      	mov	r0, r4
 8003016:	f7fd f9a7 	bl	8000368 <__aeabi_fmul>
 800301a:	4929      	ldr	r1, [pc, #164]	; (80030c0 <__kernel_sinf+0xd4>)
 800301c:	4606      	mov	r6, r0
 800301e:	4628      	mov	r0, r5
 8003020:	f7fd f9a2 	bl	8000368 <__aeabi_fmul>
 8003024:	4927      	ldr	r1, [pc, #156]	; (80030c4 <__kernel_sinf+0xd8>)
 8003026:	f7fd f895 	bl	8000154 <__aeabi_fsub>
 800302a:	4629      	mov	r1, r5
 800302c:	f7fd f99c 	bl	8000368 <__aeabi_fmul>
 8003030:	4925      	ldr	r1, [pc, #148]	; (80030c8 <__kernel_sinf+0xdc>)
 8003032:	f7fd f891 	bl	8000158 <__addsf3>
 8003036:	4629      	mov	r1, r5
 8003038:	f7fd f996 	bl	8000368 <__aeabi_fmul>
 800303c:	4923      	ldr	r1, [pc, #140]	; (80030cc <__kernel_sinf+0xe0>)
 800303e:	f7fd f889 	bl	8000154 <__aeabi_fsub>
 8003042:	4629      	mov	r1, r5
 8003044:	f7fd f990 	bl	8000368 <__aeabi_fmul>
 8003048:	4921      	ldr	r1, [pc, #132]	; (80030d0 <__kernel_sinf+0xe4>)
 800304a:	f7fd f885 	bl	8000158 <__addsf3>
 800304e:	4680      	mov	r8, r0
 8003050:	f1b9 0f00 	cmp.w	r9, #0
 8003054:	d111      	bne.n	800307a <__kernel_sinf+0x8e>
 8003056:	4601      	mov	r1, r0
 8003058:	4628      	mov	r0, r5
 800305a:	f7fd f985 	bl	8000368 <__aeabi_fmul>
 800305e:	491d      	ldr	r1, [pc, #116]	; (80030d4 <__kernel_sinf+0xe8>)
 8003060:	f7fd f878 	bl	8000154 <__aeabi_fsub>
 8003064:	4631      	mov	r1, r6
 8003066:	f7fd f97f 	bl	8000368 <__aeabi_fmul>
 800306a:	4601      	mov	r1, r0
 800306c:	4620      	mov	r0, r4
 800306e:	f7fd f873 	bl	8000158 <__addsf3>
 8003072:	4604      	mov	r4, r0
 8003074:	4620      	mov	r0, r4
 8003076:	e8bd 83f8 	ldmia.w	sp!, {r3, r4, r5, r6, r7, r8, r9, pc}
 800307a:	f04f 517c 	mov.w	r1, #1056964608	; 0x3f000000
 800307e:	4638      	mov	r0, r7
 8003080:	f7fd f972 	bl	8000368 <__aeabi_fmul>
 8003084:	4641      	mov	r1, r8
 8003086:	4681      	mov	r9, r0
 8003088:	4630      	mov	r0, r6
 800308a:	f7fd f96d 	bl	8000368 <__aeabi_fmul>
 800308e:	4601      	mov	r1, r0
 8003090:	4648      	mov	r0, r9
 8003092:	f7fd f85f 	bl	8000154 <__aeabi_fsub>
 8003096:	4629      	mov	r1, r5
 8003098:	f7fd f966 	bl	8000368 <__aeabi_fmul>
 800309c:	4639      	mov	r1, r7
 800309e:	f7fd f859 	bl	8000154 <__aeabi_fsub>
 80030a2:	490c      	ldr	r1, [pc, #48]	; (80030d4 <__kernel_sinf+0xe8>)
 80030a4:	4605      	mov	r5, r0
 80030a6:	4630      	mov	r0, r6
 80030a8:	f7fd f95e 	bl	8000368 <__aeabi_fmul>
 80030ac:	4601      	mov	r1, r0
 80030ae:	4628      	mov	r0, r5
 80030b0:	f7fd f852 	bl	8000158 <__addsf3>
 80030b4:	4601      	mov	r1, r0
 80030b6:	4620      	mov	r0, r4
 80030b8:	f7fd f84c 	bl	8000154 <__aeabi_fsub>
 80030bc:	e7d9      	b.n	8003072 <__kernel_sinf+0x86>
 80030be:	bf00      	nop
 80030c0:	2f2ec9d3 	.word	0x2f2ec9d3
 80030c4:	32d72f34 	.word	0x32d72f34
 80030c8:	3638ef1b 	.word	0x3638ef1b
 80030cc:	39500d01 	.word	0x39500d01
 80030d0:	3c088889 	.word	0x3c088889
 80030d4:	3e2aaaab 	.word	0x3e2aaaab

080030d8 <fabsf>:
 80030d8:	f020 4000 	bic.w	r0, r0, #2147483648	; 0x80000000
 80030dc:	4770      	bx	lr
	...

080030e0 <floorf>:
 80030e0:	b570      	push	{r4, r5, r6, lr}
 80030e2:	f3c0 55c7 	ubfx	r5, r0, #23, #8
 80030e6:	3d7f      	subs	r5, #127	; 0x7f
 80030e8:	2d16      	cmp	r5, #22
 80030ea:	4601      	mov	r1, r0
 80030ec:	4604      	mov	r4, r0
 80030ee:	f020 4600 	bic.w	r6, r0, #2147483648	; 0x80000000
 80030f2:	dc26      	bgt.n	8003142 <floorf+0x62>
 80030f4:	2d00      	cmp	r5, #0
 80030f6:	da0e      	bge.n	8003116 <floorf+0x36>
 80030f8:	4917      	ldr	r1, [pc, #92]	; (8003158 <floorf+0x78>)
 80030fa:	f7fd f82d 	bl	8000158 <__addsf3>
 80030fe:	2100      	movs	r1, #0
 8003100:	f7fd faee 	bl	80006e0 <__aeabi_fcmpgt>
 8003104:	b128      	cbz	r0, 8003112 <floorf+0x32>
 8003106:	2c00      	cmp	r4, #0
 8003108:	da23      	bge.n	8003152 <floorf+0x72>
 800310a:	4b14      	ldr	r3, [pc, #80]	; (800315c <floorf+0x7c>)
 800310c:	2e00      	cmp	r6, #0
 800310e:	bf18      	it	ne
 8003110:	461c      	movne	r4, r3
 8003112:	4621      	mov	r1, r4
 8003114:	e01b      	b.n	800314e <floorf+0x6e>
 8003116:	4e12      	ldr	r6, [pc, #72]	; (8003160 <floorf+0x80>)
 8003118:	412e      	asrs	r6, r5
 800311a:	4230      	tst	r0, r6
 800311c:	d017      	beq.n	800314e <floorf+0x6e>
 800311e:	490e      	ldr	r1, [pc, #56]	; (8003158 <floorf+0x78>)
 8003120:	f7fd f81a 	bl	8000158 <__addsf3>
 8003124:	2100      	movs	r1, #0
 8003126:	f7fd fadb 	bl	80006e0 <__aeabi_fcmpgt>
 800312a:	2800      	cmp	r0, #0
 800312c:	d0f1      	beq.n	8003112 <floorf+0x32>
 800312e:	2c00      	cmp	r4, #0
 8003130:	bfbe      	ittt	lt
 8003132:	f44f 0300 	movlt.w	r3, #8388608	; 0x800000
 8003136:	fa43 f505 	asrlt.w	r5, r3, r5
 800313a:	1964      	addlt	r4, r4, r5
 800313c:	ea24 0406 	bic.w	r4, r4, r6
 8003140:	e7e7      	b.n	8003112 <floorf+0x32>
 8003142:	f1b6 4fff 	cmp.w	r6, #2139095040	; 0x7f800000
 8003146:	d302      	bcc.n	800314e <floorf+0x6e>
 8003148:	f7fd f806 	bl	8000158 <__addsf3>
 800314c:	4601      	mov	r1, r0
 800314e:	4608      	mov	r0, r1
 8003150:	bd70      	pop	{r4, r5, r6, pc}
 8003152:	2400      	movs	r4, #0
 8003154:	e7dd      	b.n	8003112 <floorf+0x32>
 8003156:	bf00      	nop
 8003158:	7149f2ca 	.word	0x7149f2ca
 800315c:	bf800000 	.word	0xbf800000
 8003160:	007fffff 	.word	0x007fffff

08003164 <scalbnf>:
 8003164:	f030 4200 	bics.w	r2, r0, #2147483648	; 0x80000000
 8003168:	b538      	push	{r3, r4, r5, lr}
 800316a:	4603      	mov	r3, r0
 800316c:	460d      	mov	r5, r1
 800316e:	4604      	mov	r4, r0
 8003170:	d02a      	beq.n	80031c8 <scalbnf+0x64>
 8003172:	f1b2 4fff 	cmp.w	r2, #2139095040	; 0x7f800000
 8003176:	d304      	bcc.n	8003182 <scalbnf+0x1e>
 8003178:	4601      	mov	r1, r0
 800317a:	f7fc ffed 	bl	8000158 <__addsf3>
 800317e:	4603      	mov	r3, r0
 8003180:	e022      	b.n	80031c8 <scalbnf+0x64>
 8003182:	f010 4fff 	tst.w	r0, #2139095040	; 0x7f800000
 8003186:	d117      	bne.n	80031b8 <scalbnf+0x54>
 8003188:	f04f 4198 	mov.w	r1, #1275068416	; 0x4c000000
 800318c:	f7fd f8ec 	bl	8000368 <__aeabi_fmul>
 8003190:	4a17      	ldr	r2, [pc, #92]	; (80031f0 <scalbnf+0x8c>)
 8003192:	4603      	mov	r3, r0
 8003194:	4295      	cmp	r5, r2
 8003196:	db0b      	blt.n	80031b0 <scalbnf+0x4c>
 8003198:	4604      	mov	r4, r0
 800319a:	f3c0 52c7 	ubfx	r2, r0, #23, #8
 800319e:	3a19      	subs	r2, #25
 80031a0:	442a      	add	r2, r5
 80031a2:	2afe      	cmp	r2, #254	; 0xfe
 80031a4:	dd0a      	ble.n	80031bc <scalbnf+0x58>
 80031a6:	4913      	ldr	r1, [pc, #76]	; (80031f4 <scalbnf+0x90>)
 80031a8:	4618      	mov	r0, r3
 80031aa:	f361 001e 	bfi	r0, r1, #0, #31
 80031ae:	e000      	b.n	80031b2 <scalbnf+0x4e>
 80031b0:	4911      	ldr	r1, [pc, #68]	; (80031f8 <scalbnf+0x94>)
 80031b2:	f7fd f8d9 	bl	8000368 <__aeabi_fmul>
 80031b6:	e7e2      	b.n	800317e <scalbnf+0x1a>
 80031b8:	0dd2      	lsrs	r2, r2, #23
 80031ba:	e7f1      	b.n	80031a0 <scalbnf+0x3c>
 80031bc:	2a00      	cmp	r2, #0
 80031be:	dd05      	ble.n	80031cc <scalbnf+0x68>
 80031c0:	f024 40ff 	bic.w	r0, r4, #2139095040	; 0x7f800000
 80031c4:	ea40 53c2 	orr.w	r3, r0, r2, lsl #23
 80031c8:	4618      	mov	r0, r3
 80031ca:	bd38      	pop	{r3, r4, r5, pc}
 80031cc:	f112 0f16 	cmn.w	r2, #22
 80031d0:	da05      	bge.n	80031de <scalbnf+0x7a>
 80031d2:	f24c 3250 	movw	r2, #50000	; 0xc350
 80031d6:	4295      	cmp	r5, r2
 80031d8:	dce5      	bgt.n	80031a6 <scalbnf+0x42>
 80031da:	4907      	ldr	r1, [pc, #28]	; (80031f8 <scalbnf+0x94>)
 80031dc:	e7e4      	b.n	80031a8 <scalbnf+0x44>
 80031de:	3219      	adds	r2, #25
 80031e0:	f024 44ff 	bic.w	r4, r4, #2139095040	; 0x7f800000
 80031e4:	f04f 514c 	mov.w	r1, #855638016	; 0x33000000
 80031e8:	ea44 50c2 	orr.w	r0, r4, r2, lsl #23
 80031ec:	e7e1      	b.n	80031b2 <scalbnf+0x4e>
 80031ee:	bf00      	nop
 80031f0:	ffff3cb0 	.word	0xffff3cb0
 80031f4:	7149f2ca 	.word	0x7149f2ca
 80031f8:	0da24260 	.word	0x0da24260

080031fc <_init>:
 80031fc:	b5f8      	push	{r3, r4, r5, r6, r7, lr}
 80031fe:	bf00      	nop
 8003200:	bcf8      	pop	{r3, r4, r5, r6, r7}
 8003202:	bc08      	pop	{r3}
 8003204:	469e      	mov	lr, r3
 8003206:	4770      	bx	lr

08003208 <_fini>:
 8003208:	b5f8      	push	{r3, r4, r5, r6, r7, lr}
 800320a:	bf00      	nop
 800320c:	bcf8      	pop	{r3, r4, r5, r6, r7}
 800320e:	bc08      	pop	{r3}
 8003210:	469e      	mov	lr, r3
 8003212:	4770      	bx	lr
